(lp0
(lp1
S'Simple Hairpin'
p2
aS'(((((......)))))'
p3
aS'GAUACAAAAAAGUAUC'
p4
aF1.0
aa(lp5
S'Arabidopsis Thaliana 6 RNA - Difficulty Level 0'
p6
aS'(((((((....(((...........)))((((((((..(((((((((((((((((((...(((((......))))).)))))).)))))))))))))..))))))))..)))))))'
p7
aS'GAUAUACGAUCGACUAAAAAAAAAUGUCGAUAUAUCGACUAUAUAUAUAUAGAUAUCAAAGAUACUAAAAUGUAUCAGAUAUCAUAUAUAUAUAUAGAAGAUAUAUCAAGUAUAUC'
p8
aF1.0
aa(lp9
S'Prion Pseudoknot - Difficulty Level 0'
p10
aS'((((((.((((....))))))).)))..........'
p11
aS'GAUAUCAGAUCGAAAGAUCGAUAGUCAAAAAAAAAA'
p12
aF1.0
aa(lp13
S'Human Integrated Adenovirus - Difficulty Level 0'
p14
aS'((((((((((((((.((((((...........((((((((((((.....((((((((....(((((((((((((........))))))))))....))))))))....))))))....)))))...((((((.......))))))))))............)))))).))))....))))))...))))...'
p15
aS'CUGGAUGUGUAUAGUAUUAAAAAAAAAAAAAAUAUAGUGAUGUGCUCAAAUCUUCCCAAAAUACAGCCAUGUUCUAAAAAAUGGGCGUGGCUAAUGGACGAUGAACGCUGAUAUCAGUAAUACAAAUAUCUGUAAAAAUUAGAUGCACGUAAAAAAAAAAGUUUCGUUCUAUAAAAGUACACAAACUGGAAA'
p16
aF0.96875
aa(lp17
S'The Gammaretrovirus Signal - Difficulty Level 0'
p18
aS'..(.(..((((((....))))))..).)......((((..(((.(((((((((....)))))....)))))))))))..((((((((....))))))))..'
p19
aS'AAGAGAGCUAUACGAAAGUAUAGAACGCAAAAAAGAUCAAGACAGAUCCUGUCGAAAGAUAGAAAAGAUCGUCGAUCAAGAUAUAGCGAAAGUUAUAUCGA'
p20
aF1.0
aa(lp21
S'Saccharomyces Cerevisiae - Difficulty Level 0'
p22
aS'(((((((((((........)))).((...............))....(((((.......))))))))))))....(((((((..((((........))))(((.............)))....(((((.......))))))))))))....(((((((..((((........))))((((((.......))))))....(((((.......))))))))))))....(((((((..((((........))))((((((.......))))))....(((((.......))))))))))))....(((((((..((((........))))((((((.......))))))....(((((.......))))))))))))....'
p23
aS'GGACUAUCUCCAAAAAAAGGGAGGGCAAGAAAAAAAAAAAAGCAAGAGAGACGAAAAAAGUCUCGUAGUUCAAAAUAAUUAUAACUACAAAAAAGGGUAGCCCAAAAAAAAAAAAAGGGUAGAGUUACGAAAAAAGUAGCAUAAUUACAAAGAUCUAUAACUACAAAAAAAGGUAGCGAUACAAAAAAGGUAUCGUAGAGGGACUAAAAAUGUUCCAUAGAUCAAAGGUUUUACAACUAGAAAAAAAACUAGCUAAACAAAAAAGGUUUAGUAGAGAGACAAAAAAGGUCUCGUGAAGCAAAGGAUGUUUAACUACUAAAAAAUGUAGCUAUACUAAAAAUGUAUAGUAGAGAUAGGAAAAAACUAUCGAAUAUCAAAA'
p24
aF1.0
aa(lp25
S'Fractal 2'
p26
aS'.....((((((((...((((((((((..((((..........))))..((((..........))))..((((..........))))..))))))))))...((((((((((..((((..........))))..((((..........))))..((((..........))))..))))))))))...((((((((((..((((..........))))..((((..........))))..((((..........))))..))))))))))...)))))))).....'
p27
aS'AAAAAGAUAUAUGAAAGGGUAUAUGAAUUAGCAAAAAAAAAAGCUGUAGAGCAAAAAAAAAAGCUCAAGAUCAAAAAAAAAAGAUCAAUUAUAUACCCAAAGGAUAUAAGGAAGAGCAAAAAAAAAAGCUCAAGAGCAAAAAAAAAAGCUCAAGAUCAAAAAAAAAAGAUCAACUUUAUAUCCAAAGGAUAUAUGAAAGAGCUAAAAAAAAUGCUCGAGAGCAAAAAAAAAAGCUCGAGAUCAAAAAAAAAAGAUCAAUUAUAUAUCCAAACAUAUAUCAAAAA'
p28
aF1.0
aa(lp29
S'G-C Placement'
p30
aS'((((...)))).'
p31
aS'GAUCAAAGAUCA'
p32
aF1.0
aa(lp33
S'The Sun'
p34
aS'(((.(((((((...))))..))))))...(((.(((((((...))))..))))))...(((.(((((((...))))..))))))...(((.(((((((...))))..))))))...(((.(((((((...))))..))))))...(((.(((((((...))))..))))))...(((.(((((((...))))..))))))...(((.(((((((...))))..))))))...(((.(((((((...))))..))))))'
p35
aS'GGCAUGGUAAAUAUGUUGAACUAGUCAAAAUCAAAUUUCCGCAGUCCAAAUAUAUGAUGUCAGAUAUGCAAGGCAUAAGUCGCUUAGAAUAGUCGACCAAGUGAUAAAUCAAUAAGGUGACGGAUAGGAAUUAUAACCGUAUAAACUUAGAUAACUAAAAGUUAAAACAGGGAUGAAAGAUAUAAAAGCUGUAAGACAUUUAACUCAAUUCCACAAGGUGUAAAGUGGGGAACCUAGAUGCAGAAAAUCCCAGUCGGG'
p36
aF0.813953488372093
aa(lp37
S'Frog Foot'
p38
aS'..........((((....))))((((....))))((((...))))'
p39
aS'AAAAAAAAAAUACCGAAAGGUAGAUCUAAUGAUCGAUCAAAGAUC'
p40
aF1.0
aa(lp41
S'InfoRNA test 16'
p42
aS'((((((.((((((((....))))).)).).))))))'
p43
aS'GGUAAGUGACGACAUGAAAGUGUUAGUACUCUUACC'
p44
aF1.0
aa(lp45
S'Mat - Martian 2'
p46
aS'((((....))))...(((((((..(((((((.......))))))))))))))...((((((((......(((((((.(((((((.......))))))))))))))...((((((((((((((.......))))))).)))))))......))))))))...((((((((((((((.......)))))))..)))))))...((((....))))'
p47
aS'GAUAGAAAUAUCAAAGAUAUACAAGAUAUACAAAAAAAGUAUAUCGUAUAUCAAAGAUAUAUGAAAAAAGAUAUACAGAUAUACAAAAAAAGUAUAUCGUAUAUCAAAGGGGGGGGGGGGGGAAAAAAACCCCCCCACCCCCCCAAAAAACAUAUAUCAAAGGGGGGGGGGGGGGAAAAAAACCCCCCCAACCCCCCCAAAGAUCGAAAGAUU'
p48
aF1.0
aa(lp49
S'square'
p50
aS'((((((((((((((((((((((((((...))))))....)))))))....))))))....)))))))'
p51
aS'GAUAUACCUGUACCUAUAUCCUAUACAAAGUAUAGAAAAGAUAUAGAAAAGUACAGAAAAGUAUAUC'
p52
aF1.0
aa(lp53
S'Six legd turtle 2'
p54
aS'.....((...((....))...((....))...((....))...((....))...((....))...((....))...))....................'
p55
aS'AAAAAGCAAAGCGAAAGCAAAGCGAAAGCAAAGCGAAAGCAAAGCGAAAGCAAAGCGAAAGCAAAGAGAAAUCAAAGCAAAAAAAAAAAAAAAAAAAA'
p56
aF1.0
aa(lp57
S'Small and Easy 6'
p58
aS'(((((.....))..((.........)))))'
p59
aS'GGCGCAAAAAGCAAGGGAAAAAAAACCGCC'
p60
aF1.0
aa(lp61
S'Fractile'
p62
aS'............((....))...((...((....))..((...((....))...))..((....))...))..((....))........................'
p63
aS'AAAAAAAAAAAAGGGAAACCAAAGCAAACCGAAAGGAAGGAAAUCGAAAGAGAGCCAAGGGAAACCAAAGCAUGCGAAAGCUAAAAAAAAAAAAAAAAAAAAAAA'
p64
aF1.0
aa(lp65
S'Six legd Turtle'
p66
aS'.....((....((....))....((....))....((....))....((....))....((....))....((....))....))....................'
p67
aS'AAAAAGCAAAAGCGAAAGCAAAAGCGAAAGCAAAACCGAAAGGAAAAGCGAAAGCAAAAGCGAAAGCAAAAGCGAAAGCAAAAGCAAAAAAAAAAAAAAAAAAAA'
p68
aF1.0
aa(lp69
S'snoRNA SNORD64'
p70
aS'((((((.....(((....(((...(((((.............)))))....)))..)))..))))))'
p71
aS'GAUAUCAAAAAGACAAAAGACAAAGAUACAAAAAAAAAAAAAGUAUCAAAAGUCAAGUCAAGAUAUC'
p72
aF1.0
aa(lp73
S'Chalk Outline'
p74
aS'.....((((.(((((....)).))).(((.(((....)))))).((((((....)).)))).(((((....))).)))))).......................'
p75
aS'AAAAAGAUCAGACACGAAAGUGGUCGGACAGACGAAAGUCGUCAGAUGACUAAUGUACAUCAGGCACGAAAGUGACCGAUCAAAAAAAAAAAAAAAAAAAAAAA'
p76
aF1.0
aa(lp77
S'InfoRNA bulge test 9'
p78
aS'(((((((.(.(.(.(((((((....)))))))))))))))))'
p79
aS'GAUAUACAGAGAGAGAUAUACGAAAGUAUAUCCCCGUAUAUC'
p80
aF1.0
aa(lp81
S'Tilted Russian Cross'
p82
aS'.....((((((((....))))((((.((((....))))(((((....))))).((((....))))))))((((....))))))))....................'
p83
aS'AAAAAGGCCGUCCUAAUGGAUUGUCCGUUCUAAUGAGCCAUAUGAAAGUAUGAGGGCAAAGGCCUGACAACAGUAAUCUGUGGCCGAAAAAAAAAAAAAAAAAAA'
p84
aF1.0
aa(lp85
S'This is ACTUALLY Small And Easy 6'
p86
aS'................................................................................................................................................................................................................................................................................................................................................................................................................'
p87
aS'GAAAAAAAAAAAAAAAAAAAAAAAAAAAAAAAAAAAAAAAAAAAAAAAAAAAAAAAAAAAAAAAAAAAAAAAAAAAAAAAAAAAAAAAAAAAAAAAAAAAAAAAAAAAAAAAAAAAAAAAAAAAAAAAAAAAAAAAAAAAAAAAAAAAAAAAAAAAAAAAAAAAAAAAAAAAAAAAAAAAAAAAAAAAAAAAAAAAAAAAAAAAAAAAAAAAAAAAAAAAAAAAAAAAAAAAAAAAAAAAAAAAAAAAAAAAAAAAAAAAAAAAAAAAAAAAAAAAAAAAAAAAAAAAAAAAAAAAAAAAAAAAAAAAAAAAAAAAAAAAAAAAAAAAAAAAAAAAAAAAAAAAAAAAAAAAAAAAAAAAAAAAAAAAAAAAAAAAAAAAAAAAAAAAAAAAAAAAAAAA'
p88
aF1.0
aa(lp89
S'Shortie 4'
p90
aS'((....)).((....))'
p91
aS'GCGAAAGCAGCGAAAGC'
p92
aF1.0
aa(lp93
S'Shape Test'
p94
aS'.....(.((((..(((((........)))))..(((.(((.(((((.....))))).((((....)))).))))))..)))).)....................'
p95
aS'AAAAACUCGUCAAGAUACAAAAAAAAGUAUCAAGACACUCUGAUACAAAAAGUAUCUGUACGAAAGUACUGAGGUCAAGAUGUGAAAAAAAAAAAAAAAAAAAA'
p96
aF1.0
aa(lp97
S'The Minitsry'
p98
aS'(((.....(((.....(((.....(((.....(((........))).))).))).))).)))'
p99
aS'CCUGAAACACGUAAAAGGUAAAAGCGAUGAAACUUAAAAAAAGAGGUUAGGAUCUCGUAGCG'
p100
aF0.9354838709677419
aa(lp101
S'stickshift'
p102
aS'..((((((((.....)).))))))..'
p103
aS'AAGAUAUCCCAAAAAGGAGAUAUCAA'
p104
aF1.0
aa(lp105
S'U'
p106
aS'.....(((((.(.(.((.(.(((((((((....))))))))))))))))))).....'
p107
aS'AAAAAGAUACAGAGAGCAGAGAUAUAUACGAAAGUAUAUAUCCGCCCGUAUCAAAAA'
p108
aF1.0
aa(lp109
S'Still Life (Sunflower In A Vase)'
p110
aS'...((((..(((((.....)))))..(((((...)))))..(((((.....)))))..(((((...)))))..(((((.....)))))..(((((.....))))).((((((((((((((((((((((((((((......))))).(((((.............((((.........................................)))).............)))))(((((....))))).)))))))))))))))))))))))..(((((.....)))))..(((((.....)))))..(((((.....)))))..(((((.....)))))..(((((....)))))..(((((.....))))).))))...'
p111
aS'AAAGUUCAAGUAUCAAAAAGAUACAAGUUUGAAGUAGGCAAUUACCAAAAAGGUAAAUAGGUGUAUCACCUUAACAUCAAAAAGAUGUAAAUAUCAAAAAGAUAUGGGGAUAGAUAGAGUGGGAGUCGGCUAUCAAAAAAGAUAGAGAUUUGAAAAAAAAAAAAGGGUAAAAAAAAAAAAAAAAAAAAAAAAAAAAAAAAAAAAAAAAAACCCAAAAAAAAAAAAAGGGUCGAUGGAAAGCUAUCACCGGCUCCUACUCUGUCUAUCCCAAGGUACAAAAGGUAUCAAACAAAAAAAAUUUGUAACUAUCGAAAAGAUAGAGCUAUCGAAAAGAUAGAAGUAUCGAAAGAUAUAAGUAUCAAAAAGAUAUAGAGCGAA'
p112
aF1.0
aa(lp113
S'Quasispecies 2-2 Loop Challenge'
p114
aS'.....((((((((..((((....))))..)))).((((..(...)..)))).((((..(..(((.....)))..)..))))))))....................'
p115
aS'AAAAUGUUCGCGGAUCUAUUAAUGUAGUACCGCAGAGUAAGGAACGGACUCGGAUGGUCAGCUCAAAAAGAGAGGUAUAUCGAGCUACAAAAAAAAAAAAAAAAA'
p116
aF1.0
aa(lp117
S'Corner bulge training'
p118
aS'.(((((((((((...)))))....)))))).'
p119
aS'AGAUAUCGAUACAAAGUAUCAAAAGAUAUCA'
p120
aF1.0
aa(lp121
S'Spiral'
p122
aS'.....((((.((((((.(((.(((((.((((.((((.((.((.((.((.((.((.....)))))))))))))))))))))))))))))))))))))).....'
p123
aS'AAAAAGAUCAGAUAUCAGACAGAUACAGAUCAGAUCAGCAGCAGCAGCAGCAGCAAAAAGCGCGCGCGCGCGAUCGAUCGUAUCGUCGAUAUCGAUCAAAAA'
p124
aF1.0
aa(lp125
S'InfoRNA bulge test'
p126
aS'.............................((((......((((....((((...((((..((((.((((.....)).)).)).))..)).))...)).)).....)).))......)).)).'
p127
aS'AAAAAAAAAAAAAAAAAAAAAAAAAAAAGGACCGAAAAACAGGAAAUCGUCAAGGCGAUUCCACAGCCGGAAAACGAGUGGUAGGUUUCAGCAAGGAUCGUAAAGCCAUGGAAAAAGGAUCA'
p128
aF1.0
aa(lp129
S'Worm 1'
p130
aS'.......(.(.(.(.(.((.((.(....).)).)).).).).).)'
p131
aS'AAAAAAAGAUAGUGAAGUGAUGACAAAAGAUAGUAACAGUAAAGC'
p132
aF0.8666666666666667
aa(lp133
S'just down to 1 bulge'
p134
aS'.....((((.(((((....))))).(((....))).)).))....((((.(((....))).(((....))).))))....................'
p135
aS'AAAAACGCCACUUACGAAAGUAAGAGGAGAAAUCCAGGACGAAAAGAGCACUCGAAAGGGAGUCGAAAGACAGCUCAAAAAAAAAAAAAAAAAAAA'
p136
aF1.0
aa(lp137
S'Iron Cross'
p138
aS'.(((.(((...(((.(((...))).(((....))).)))...(((.(((....))).(((...))).)))...(((.(((....))).(((...))).)))...))).(((...))).)))..'
p139
aS'AACAAGGCAAAAUACCCCAAGGGGAAGUGAAAAUUCACCAAAGAUCCUUGAAAAAGAGAGUAUUUAAGGCAAGGACUAGCAAAGAUGUGUUAAAAGCAAACAAAUUCGACGAAAGGGGCGGCA'
p140
aF0.9349593495934959
aa(lp141
S'loops and stems'
p142
aS'.....(((((((...((((...((((...((((.........(((((............)))))...))))....((((..........))))...))))...(((........)))...))))..((......))...))))))).....'
p143
aS'AAAAAGAUAUACAAAGAUGAAAGACCAAAGACCAAAAAAAAAGAUACAAAAAAAAAAAAGUAUCAAAGGUCAAAAGAACAAAAAAAAAAGUUCAAAGGUCACAGACAAAAAAAAGUCAAACAUCAAGCAAAAAAGCGAAGUAUAUCAAAAA'
p144
aF1.0
aa(lp145
S'Water Strider'
p146
aS'.....((.((..(((((.(((....)))(((....)))))).....((((((....)))(((....))).)))))..)).)).....................'
p147
aS'AAAAUGGAGGUAAUGGCAUUAAAAGUAGUCGAAAGUUCCCUAAAAAGAUCUAUAAUUAACUCGAAAGACAAUAAUGUGCGGCUAAAAAAAAAAAAAAAAAAAA'
p148
aF0.941747572815534
aa(lp149
S'The Turtle(s) Move(s)'
p150
aS'...((....))....(((((((((.........)))))))))....((((.....)))).....(((....)))...(((((.......)))))....(((...((....)).....(((....)))....((((((.......))))))....(((....))).....((((((....(((.......)))..(((........)))...(((((......)))))...((((.....))))..)))))).........((....)).....((....))......(((((..........)))))......)))'
p151
aS'AAACCGAAAGGGAAGGAGAUAUACUAAAAAAAUGUAUAUCUCACACGAUCGAAAAGAUCAGAAGCUCAAAGGAGAUACUAUCUAAAAAUGAUAGAAAAGGCUAAGGGAAUCCACAACGCGGAAACGUAAAAAUAUCCAAAAAAAGGAUAUGAAACGCAAAGGCGAAAAACUAUAUAAAAGACAAAAAAGGUCGACUCGAAAAAAAGAGGAACUAUCAAAAAAGAUAGGAACUAUAAAAAAUAGAAAUAUAGAAAAAAAAGGCGAAAGUACAAAGGUGAACCGAUAUGGAUACAAAAAAAAAAGUAUCAAAAACGCC'
p152
aF1.0
aa(lp153
S'Adenine'
p154
aS'(((((.((((((.((((((.((((((.((((((.((((((....((((((......)))))).)))))).(((((...(((((((...)))))))))))).)))))).((((((((((((...)))))))...))))).))))))....))))))....))))))....)))))'
p155
aS'GUUACGGAUAUCAGUGUUAAGAUCGCAGAUUACGGGAGGAGCAAGAUAUCGAAAAAGAUAUCAUCUUUUAGAGCGAAUGAUUAACAAAGUUGAUCUGCUCGGUGAUCAGGGCGGCGGGGCAAAGCCCCGCAAACGCCCGGCGAUCGAAAUAGCGCAAAAGAUAUCAAAAGUAGC'
p156
aF1.0
aa(lp157
S'Tripod5'
p158
aS'..((((((((.....))))((((.....))))))))..'
p159
aS'AAGAGGGAUCAAAAAGAUCGAUGAAAAACAUCCUUCAA'
p160
aF1.0
aa(lp161
S'Shortie 6'
p162
aS'((....)).((....)).((....)).((....))'
p163
aS'CCGAAAGGAGCGAAAGCGGCGAAAGCAGGGAAACC'
p164
aF1.0
aa(lp165
S'Runner'
p166
aS'.....((((.((((.....((((...)))).))))...(((..((((((...)))...)))((((((...)))...))).)))...(((...(((....))).))).)))).....'
p167
aS'AAAAGUAUGAGAUCGAAAAGUUCAAGGAGCAGAUCAAUGGCAAGGAAGCAAAGCUAAAUCCCGCGUCAAAGACAAAGCGAGCCUAAGACAAGGACGAAAGUUAGUCGCAUGAAAAA'
p168
aF1.0
aa(lp169
S'Recoil'
p170
aS'.....(((((..((..((..(((..(((..((..((...)).)).))).))).)).)).))))).....................'
p171
aS'AAAAAGAUACAAGCAAGCAAGACAAGACAAGCAAGCAAAGCAGCAGUCAGUCAGCAGCAGUAUCAAAAAAAAAAAAAAAAAAAAA'
p172
aF1.0
aa(lp173
S'[CloudBeta] An Arm and a Leg 1.0'
p174
aS'.....(((.(((((....)).)))(((.((....))))).)))....................'
p175
aS'AAAAAGACAGACACGAAAGUGGUCGGCAGCGAAAGCGCCAGUCAAAAAAAAAAAAAAAAAAAA'
p176
aF1.0
aa(lp177
S'[CloudBeta] 5 Adjacent Stack Multi-Branch Loop'
p178
aS'(((((((((....))))(((((....)))))(((((....)))))((((....))))))))).'
p179
aS'GAUACGAUCGAAAGAUCGAUACGAAAGUAUCGGUACGAAAGUACCGUUCGAAAGAGCGUAUCA'
p180
aF1.0
aa(lp181
S'Triple Y'
p182
aS'.....((((((((((((....))))((((....))))))))((((((((....))))((((....))))))))))))....................'
p183
aS'AAAAAAGAAGGUUUAUUAAAAGGUGCGCGUAAUCGCGAACGGGGCAUAUGAAAGUAUGAUCAAAGGGUCGCCAUUUUGAAAAAAAAAAAAAAAAAAA'
p184
aF0.9175257731958762
aa(lp185
S'Misfolded Aptamer'
p186
aS'((((......(((((...))).((....)).........)).....))))'
p187
aS'UGAUAAAAAUAGAUGAAGCGAUGAGAAAGGUGGGGGUAAGUAAAAGGUCG'
p188
aF0.92
aa(lp189
S'Flower power'
p190
aS'.....((((((((...)))).((((((((...))))..((((...))))..((((...)))))))).((((...))))))))....................'
p191
aS'AAAAUGAUCGGACAAAGUCCGGAGCGAUCAAAGAUCAAGAUCAAAGAUCAACUACAAAGUAGGCUCAGACCAAAGGUCGAUCUAAAAAAAAAAAAAAAAAAA'
p192
aF1.0
aa(lp193
S'Kudzu'
p194
aS'.....(((.(..(.(((((.((((.((...)))).))))((((((...)).))))..(((...)))...))).)..).)))....................'
p195
aS'AAAAAGACAGAAGAGACGCAGGAUAGCAAAGCAUACCGCGAUGGCAAAGCACAUCAAGACAAAGUCAAAGUCACGGCAGUCAAAAAAAAAAAAAAAAAAAA'
p196
aF1.0
aa(lp197
S'"1,2,3and4bulges"'
p198
aS'.....((((.(((((....))....))).(((....))).)).)).....((((.((((....))...)).(((....))).))..))....................'
p199
aS'AAAAAGCUCUGUGGCGAAAGCAAAAUGCAGGAAAAGAACGGAUGUAAAAUGGGUUGACUAAAAGCUAUAAGUAAUAAUGGGAGAAAUUUAAAAAAAAAAAAAAAAAAA'
p200
aF0.9074074074074074
aa(lp201
S'medallion'
p202
aS'((((((.((((((....)))))).(((....))).(((....))).((((((....)))))).(((....))).((((((....)))))).(((....))).(((....))).((((((....)))))).(((....))).((((((....)))))).(((....))).(((....))).((((((....)))))).(((....))).((((((....)))))).(((....))).(((....))).((((((....)))))).(((....))).((((((....)))))).(((....))).(((....))).((((((....)))))).))))))'
p203
aS'GCUAUUGAUAGCCGAAAGGUUAUAGGAGAAAUCCCCUCGAAAGAGACCAUCUGAAAAGAUGGACGAGAAAUUGACUAUACGAAAGUAUAGAUCCAAACGGAGGCUGAAAGGCAGCAAAGUAAUUUUUGCACUGGAAACAGGAUGUUCUAAUGAGCAUAUUCGAAAGAAAAGCUAAAGCUACUAUUCGAAAGAAUAGGCUCGAAAGAGACUUUACGAAAGUAAAGAAGUGAAAACUGUUCAAAAGAAGGUAUAGUAAUUUGUGCACCAGAAAUGGACUGUAGGAAACUACAGGAUCGAAAGAUAAUCAAAGGAUGCAUCAUAAAGGUGAUGAGAUGGU'
p204
aF1.0
aa(lp205
S'[RNA] Repetitious Sequences 8/10'
p206
aS'((......((......))......(((......((......))......((......))......)))......)).....'
p207
aS'GCUAAAAAAUAAAAAGACGGAAAGGAUUAAAAGGAAAAAAAUCAAAAAGGGAAAAAGUGAAAAAUAAUAAAAAUGAAAAAA'
p208
aF0.9506172839506173
aa(lp209
S'Documenting repetitious behavior'
p210
aS'.......((.........((.........((.........((.........((.........((.........((.........((.........((.........((.........((.........((.........((.........((.........((.........((.........((.........((.........)).........)).........)).........)).........)).........)).........)).........)).........)).........)).........)).........)).........)).........)).........)).........)).........)).........))......'
p211
aS'AAAAAAAGCAAAAAAAAAGCAAAAAAAAACCAAAAAAAAAGCAAAAAAAAAGCAAAAAAAAAGCAAAAAAAAAGGAAAAAAAAAGCAAAAAAAAACGAAAAAAAAACCAAAAAAAAAGUAAAAAAAAAGCAAAAAAAAAGGGAAAAAAAAGCAAAAAAAAAGGAAAAAAAAAGCAAAAAAAAAGCAAAAAAAAAGCAAAAAAAAAGCAAAAAAAAGGCAAAAAAAAGGCAAAAAAAAACCAAAAAAAAAGCAAAAAAAAACCAAAAAAAAAGCAAAAAAAAAAUAAAAAAAAGGGAAAAAAAAACGGAAAAAAAAGCGAAAAAAAACCAAAAAAAAAGCAAAAAAAAAGCGAAAAAAAGGCGAAAAAAAAGGAAAAAAAAAGCAAAAAAAAAGCAAAAAA'
p212
aF1.0
aa(lp213
S'7 multiloop'
p214
aS'(((((((((....)))))(((((....)))))(((((....)))))(((((....)))))(((((....)))))(((((....)))))))))'
p215
aS'GAUCGUUACGAAAGUAGCUAUACUAAUGUAUACUACCGAAAGGUAGGAAUCGAAAGAUUUCUAUCAAAGGAUAGAUAUCGAAAGAUAUGAUC'
p216
aF1.0
aa(lp217
S'Kyurem 7'
p218
aS'.....((((((((((....)))(((....((((.(((.....))).((((((......)))...))))))))))))).))))....................'
p219
aS'AAAAUCGUCUAAGGUGAAAAUAGAGAAAACAUCACUGGAAAAUAGGGAGGGGUAAAAUCUUAAAGUCAACGUUUUUAAGGCGUAAAAAAAAAAAAAAAAAAA'
p220
aF0.9215686274509803
aa(lp221
S'JF1'
p222
aS'(((((((((((.(((((..(((((....((((((..(((((...(((((..((((((.((((((((((((((....))))))))))))))..(((....))).(((((((((....)))))))))..(((((....))))).)))))).))))).))))).))))))...((((((((.....))).)))))..((((((((((((((((((((((((....)))))))))))))).))))))))))...(((((......)))))((((((((((....))))))))))...((((....))))..)))))..))))).((((.(((.(((....)))))))))).(((((((((....))))).)))).)))).))).))))...'
p223
aS'GGGUUAGUGGGAAUAUCAAUAUACAAAAGAUAUCAAGAUACAAAGAUACAAGAUAUGAAUAUAUAUAUAUAUGGAAAUAUAUAUAUAUAUAAGACGAAAGUCAAUAUAUAUGGAAACAUAUAUAUAAAUAUCGAAAGGUAUACAUAUCAGUAUCAGUAUCAGAUAUCAAAGAUACAUCAAAAAGAUGGUAUCAUAGAGAGAGAGGGAGAGAAAGAGAGGAAACUCUCUUUCUCUCCACUCUCUCUCUUAAGAUACGAAAAAGUAUCGGAUAUAUUCGAAAGGAUAUAUCCAAAAUACGAAAGUAUAAGUAUGCGGAUAUGGAUCAGACAGACGAAAGUCGUCGAUCAGAGGUAUACGAAAGUAUAUCCUCACCCAGCUGAACCCAAA'
p224
aF1.0
aa(lp225
S'multilooping fun'
p226
aS'(((.(..((.((....)).((....)).))..).(....).)))'
p227
aS'GCAUUAUUGAAGUAAUUUUCAGAAAUGUCGUAAGCAAAAGUUUU'
p228
aF0.8409090909090909
aa(lp229
S'Multiloop...'
p230
aS'((((.((((.(((....))).(((....))).(((....))).(((....))).(((....))).(((....))).)))).(((((......)))))(((....)))))))'
p231
aS'GAUCAGAUCAGACGAAAGUCAUACGAAAGUAAGGCGAAAGCCAGACGAAAGUCAUACGAAAGUAAAACGAAAGUUAGAUCAGAUACAAAAAAGUAUCGACGAAAGUCGAUC'
p232
aF1.0
aa(lp233
S'hard Y'
p234
aS'.....((((((.((((((((....))))))).)))((((((((((....)))))))))))))).....'
p235
aS'AAAAUGAUGGUACCAGAUGCAAAGGCAUUUGUGGCGGAUAUAUGCGAAAGCAUAUAUCCCAUCUAAAA'
p236
aF1.0
aa(lp237
S'Mat - Elements & Sections'
p238
aS'.....((((.(...(.((((.(.((((.((.((((.((.(((....))).).)))))).).))))....).)))).)...).))))....................'
p239
aS'ACAGUCAAUGAAAACGGGAGGUAGUCCGUCAUGUCAGCGAAGGAAACUUAGACGACAGUAAGGGCAAACGAUUACACGAAGAAUAUAAAAAAAAAAAAAAAAAAAA'
p240
aF0.9622641509433962
aa(lp241
S'Chicken feet'
p242
aS'.....((.((.((...)).((....))...)))).((.((.((...)).((....))...)))).....'
p243
aS'AAAAAUAACCUAGGAAGAUCCAAACGGCAAUGUCACGGUCAUGAAACAAGUAAAGAUAAUGCCGGAAAU'
p244
aF0.9130434782608695
aa(lp245
S'Bug 18'
p246
aS'.((.((.((.((..((..((.((...))..)).)).))..))..))....)).'
p247
aS'GGUAGGUGUUCAUGAUAUUAUGGAAACUAUUCUGGAUGAUACUUUUGAAGAUA'
p248
aF0.9245283018867925
aa(lp249
S'Fractal star x5'
p250
aS'.....((((((((..((((....))))..((((....))))..((((....))))..((((....))))..)))))))).....((((((((..((((....))))..((((....))))..((((....))))..((((....))))..)))))))).....((((((((..((((....))))..((((....))))..((((....))))..((((....))))..)))))))).....((((((((..((((....))))..((((....))))..((((....))))..((((....))))..)))))))).....((((((((..((((....))))..((((....))))..((((....))))..((((....))))..)))))))).....'
p251
aS'AAAAACCUUGUAUGAGAUUGAAAAAUCGGCCUCUAAUGAGGAACUACAAAGGUAGGUGCUUUAAUAAGUUAAUACAGGGAAAAGUGUAGCAUCGGAUCGAAAGAUCACCUAUUAAGAUAGUACGCUGAAAAGUGGACCUCGAAAGGGGAUGUGCUAUAAAAAACUACAUCUAAACUCGAAAGGGUGACAACUAAUGUUGGACUACGAAAGUAGGAAUUCGAAAGGAUAGAGAUGUGGGAAAACGGUGACCAGGGUCGAAAGACUAACUACGAAAGUAGGACCACAAAGGUGGGGGUCCGAAAGGACAGGGUUACCGAAAAAGUGGAUGAGAGAGCAAAGGCUCCAGGCGUAAUCGCUGACUACGAAAGUAGGAGCAAGAAAUUGCAAUCAUUUAUAAAAA'
p252
aF1.0
aa(lp253
S'Crop circle 2'
p254
aS'((...((....((.....((.........((..............................))...............)).........)).......))....))....'
p255
aS'GUAAUUUAAAUUGGAAAAAAAAAAAAAAGUAGAAAAAAAAAAAAAAAAAAAAAAAAAAAAAUGAAAAAAAAAAAAAAGUUGAAAAAAAAGAAAAAAAGGGUAAGGUAAAA'
p256
aF0.9090909090909091
aa(lp257
S'Branching Loop'
p258
aS'.(((((........)((((....))))..)))).......'
p259
aS'AGGGUCUACUAAUCAUACGUACUAGAGAACUUCGAAAAAA'
p260
aF0.95
aa(lp261
S'Bug 38'
p262
aS'.((.((.((..((.(...).)).))..))....)).'
p263
aS'GAGGGUGAUGAUGGUUAAGACGCAUUGACAAAACUA'
p264
aF0.8888888888888888
aa(lp265
S'Simple Single Bond'
p266
aS'......(......((((.....))))......)......................'
p267
aS'AAAAAACGAAAAAGAACAAAAGGUUUGAAAAAGGAAAAAAAAAAAAAAAAAAAAA'
p268
aF1.0
aa(lp269
S'Taraxacum officinale'
p270
aS'((((....).))).((((....).))).((((....).))).((((....).))).((((....).))).((((....).))).((((((((((((((((((((((...)))).))))))).(((((..((((((((((..(((((((...))))))).))))))))))((((.((((((...)))))))))))))))...))))))))))).((((....).))).((((....).))).((((....).))).((((....).))).((((....).)))'
p271
aS'UGCUGAAAGAGUAACACCUAAUGACUAAAUCGUAAUUACAUAAUCCAAAGGAGAAGUAAGAAAGUAUUAAGUUCUAAUGAGAUGGUGAUAAUUACCGGAUAUACGCUAUGCGUAGUAUCUGAGAGACAAGCCUGGAUGUAAUAUAUACUAUGUAUAUGAACAUUCAGGUGAUCAGAUGUCGAAGACAUCGAUUGUCUCGAAGUAGUUAUCACAGUGCGAAAGAUACUGUGCGAAAGAUACGAUGCAAAGGACGUACUACCAAUGAUAGGGCGGGAAACCUGU'
p272
aF0.9574468085106383
aa(lp273
S'Headless Bug on Windshield'
p274
aS'.((.((.....(((((...((.(((.........................))).))...))).))...)).)).(((..(((..((.......((....)).......)))))......))).(((((.......(((..((..(((..((.(((...............)))..))..)))..)).)))..))..))).'
p275
aS'AGCAGCAAAAACAGACAAAGCAAACGAAAAAAAAAAAAAAAAAAAAAAAAGUUGGCAAAGUCAUGAAAGCAGCAGCCAAGACAAGCAAAAAAAGCGAAAGCAAAAAAAGCGUCAAAAAAGGCAGACCCGAAAAAAGACAAGCGGCUCAGCCAGACAAAAAAAAAAAAAAAGUCAAGGAAGAGAAGCAGUCAAGGACGUCA'
p276
aF1.0
aa(lp277
S'Pokeball'
p278
aS'...(((((((....((..((..(((..((..((..((..((..((..((...)).))..)).)).))..)).))).)).)))))))))........(((((((....((..((..(((..((..((..((..((..((..((...)).))..)).)).))..)).))).)).)))))))))...'
p279
aS'AAACACUUAGAAAAGCAAGCAACACAAGUGACAAAGUAAGCGACCAAGCAAAGCAGGAAGCAACAUGAAGCAGUGAGCAGCCUAGGUGAAAAAAAAGAGGACGAAAUGCAAGCAAGACAAGCGACCAAGCAAGCGACCGAGCAAAGCAGGAAGCAGUAGGAAGUAGUCAGCAGCCGUUUUCAAA'
p280
aF1.0
aa(lp281
S'Variation of a crop circle'
p282
aS'....((....((....((....((..((..((...))..))....))......)).......)).........)).............'
p283
aS'AAAAUCUAAACAGAACGUAAAGGCAUUUAACCGAAGGAGGAUAAUGAAAAAAAACGAAAAAAUGAAAAAAAAUGAGAAAAAAAAAAAA'
p284
aF0.9318181818181818
aa(lp285
S'Loop next to a Multiloop'
p286
aS'..((((((((.......(.((((((....)))))).(((((((....))))))).).......))))))))..'
p287
aS'AGCUGGUAUGUAAAAAGUUGGCGGAAAAGUUUGCCGGAUAUACGAAAGUAUAUCAAAAAAAAUCAUACUGGAA'
p288
aF0.9726027397260274
aa(lp289
S'Snowflake 4'
p290
aS'((((...))))(((((((....))(((((..(((((((....))(((((((((...))))..((((...)))))))))((....)))))))..(((((((....))(((((((((...))))..((((...)))))))))((....)))))))..(((((((....))(((((((((...))))..((((...)))))))))((....)))))))..(((((((....))(((((((((...))))..((((...)))))))))((....)))))))..(((((((....))(((((((((...))))..((((...)))))))))((....)))))))..)))))((....)))))))((((...))))'
p291
aS'UUUCAAAGGAAUUAGGCAGAAAUGAUAUCAAGAGACGGUAAUUCGCUACGAACAAAGUUCGACUACAAAGUACGUAGCCCGAAAGUGUUUCAAGAUGUUCUAAUCGAUAUCGGCCUUUGGCGGACUCAAAAUGAGGGUAUACUAAUGGGCAUCAAAAUUGCGGAAAUACGUUUGUAGAAGUAACGAAUCUGAAUCAUAAAUGAGAAAGCGUAAUUAAGAUACUAAAAGCAAUAUUAUAAGAAGCAGGAUUACGAACUAAAAUAGACGAAACUGUAUCAUGCGAUGCGAAAGCGGUGAGACAGAAUGUCGACAAGAAGUUUGUUAUCUCAAAGGAAUCGCUGGAUAUAUGAAAUUCUUAAGAGCUAUGUUC'
p292
aF0.8729729729729729
aa(lp293
S'Mat - Cuboid'
p294
aS'(..((....((..((....((..((....(..((..((....((..((..((....(..((..((..((....((..((..((..((....((..((..((..((..((....((..((..((..((..((....((..((..((..((..((..((....((..((..((..((..((..((....((..((..((..((..((..((......))..))..))..))..))..))))..))..))..))..))..))))..))..))..))..))..))))..))..))..))..))))..))..))..))..))))..))..))..))))..))..))..)))..))..))))..))..)))..))))..))))..)'
p295
aS'GAAGAAAAAUCAAUAAAAAGUAAUCAAAAGUUCAAAGAAAAAACAGGCAAGCAAAAGGUCCAAGCAGCAAAAAGAUUGAAAGUAAUAAAAAGCGUCCAUGAAAGAAGGCAAAAGUAACCACCCCACCGAGGAAAAGCAACGUACCGUUCGACCGACUAAAAGGAACCGACUGACCGGGCGACGAAAAGGAUGAGAGUGAUCGACCGACGAAAAAACGGAGGAAGAAAGCAAUUUGUCCGAAGCAAGGAAGGAAGGAGUUGGAAGGAAGGUAGGAACGGAGCCGAAGGAAGGAGGGAAACGAAAUCGCUCCCGUUAGCGAGGAGCGACAUUCUCUGGCGGGGUACGCAAGCAGGUUACGUCCUCGUAUUCAGCGCGUCAGC'
p296
aF0.8894736842105263
aa(lp297
S'Misfolded Aptamer 6'
p298
aS'......(((......((((..(....(((........)))....).....)))).......)))...........'
p299
aS'AAAAAAGAUUAAAAGAAUCGACGAAAAACGAAAAAAAGUUGGAAGGAAAAGAUUAAAAAAUAUCGAAAAAAAAAA'
p300
aF1.0
aa(lp301
S'Snowflake 3'
p302
aS'(((((....)).((((((....)))..((((.((((..(((....)))(((.((....))(((...)))((....)).)))(((....)))..)))).((((..(((....)))(((.((....))(((...)))((....)).)))(((....)))..)))).((((..(((....)))(((.((....))(((...)))((....)).)))(((....)))..)))).((((..(((....)))(((.((....))(((...)))((....)).)))(((....)))..)))).((((..(((....)))(((.((....))(((...)))((....)).)))(((....)))..)))).))))..(((....)))))).((....)))))'
p303
aS'CAAGGGAAAGCAGGCGGCAAAGGUCAUGUCUGCAUCAAGACGAAAUUAUCCACCGAAAGGCUCAAAGAGACGAAAGAAUCGGUCGAAGGGUCAGAUGAAAUGAAUGAUAAUUUAGCGGGCGAAAGCGCAGAAUGCCAGAAAGGAUGCUCUGAAAGGAAGCAUUAGGUCGCGAGGAAAAUAUAGACCGAAACGCUAAAAUGGCAGAAAGGAUUAUACGAAAAUGAAGACGGGAUCGACCGGAAAUGCGUCCUCGAAAGGGCCAAAGGGCGGAAACGUGACGUCGAAAGGCAUGAUCAGUUAAAGCUGAAAGGCGAGGGCGAAAGCUUGAAACAACGAAAGUCACUCAAUGAAAGUUAAGAGUGAGGCUAGACGAAAGUCGCCAGCGAAAGCUUG'
p304
aF0.8346055979643766
aa(lp305
S'Hard Y and a bit more'
p306
aS'.....(((((((.(((((....)))).)))(((((.((..((((....))))..(((((......)))))..)).))))))))))...................._'
p307
aS'AAAAGGACCAUUACGAGAUAAUUCUCAGACGUUGAACAGAGCUCGAAAGAGUAAGUCGUAAAAAGGCGGCGAUGCUUGACCGGUCAAAAAAAAAAAAAAAAAAAAA'
p308
aF0.9716981132075472
aa(lp309
S'Mat - Lot 2-2 B'
p310
aS'((..(((..((((..((....((..((((....))....))..))))..))....))..))((..((..((..((((..((....((..((((..((....((....))))..))....))..))))..))((..((..((....))((..((((..((....((..((((....))....))..))))..))....))..))))..))..))..))((..((....((..((((..((....((....))))..))....))..))))..))))..))..)..))'
p311
aS'GAAAUGGAACUGCGAUCAAAAGCGAGUAUGAAAGUAAAAAUAAGUGGAAGUAAAAAGAUUCCGAAGUAAGGGGUGGGGACCAAAAUGGACGGCGACCAAAAGCUAAUGCUGGAGCAAAAAGAAUGGGAAUAGUGAGGAAAUGAAAGUUCGAAAAGGAUCAAAAUCGACUACGAAAGUAAAAAGGAGAGGGACUAAAAUUAGGAUUGAGCAACGAAGCUAGAUCAAAAGCGAUUACGAACAAAAGCUAAUGCGUAUGUAAAAAAAAGCGGAAUAACGACGAAGCGGC'
p312
aF0.9020979020979021
aa(lp313
S'Shapes and Energy'
p314
aS'......(.((((.((((....(...((((.(....).))))...)))))..((......((((....)))))).)))).).....................'
p315
aS'AAAAAACAGAUCACUAAAAAAUGAAUUUCACGAAACGUUGACAAGUAAGGACCAAAAACGUUGAGAGCAGCCGGGAUUGGCAAAAAAAAAAAAAAAAAAAA'
p316
aF0.9603960396039604
aa(lp317
S"Spiral of 5's"
p318
aS'(....(((((...(((((...(((((....(((((...(((((...(((((..(((((....(((((...(((((...(((((..(((((...(((((...(((((..(((((...(((((..(((((..(((((..(((((..(((((.(((((.((((((((((.....))))).....))))).....))))).....))))).....))))).....))))).....))))).....))))).....))))).....))))).....))))).....))))).....))))).....))))).....))))).....))))).....))))).....))))).....))))).....))))).....))))).....)))))....).....'
p319
aS'GGGAUGCUGGAAAGAUUUAAAGAUAUAAAAGUUACGAAGAUACAAAGAUAUAAGAUACAAAAGAUACAAUGAUACAACGAUACGUGAUACAAAGAAACAAAGAUAAAAGAUAUAAAGAUACAAGAUCUAAGAUACUUGAUCCAUGGAACAUAUACGUGAUUUAUGCAAAAGGUAUAAAAAAAAUCAAAAAAGUAUAAAAAAGUUCCUAAAAGGAUCUAAAUGUAUCGAAAGAGAUCAAAAAGUAUCAAAAAGUAUCAAAAAUUAUCAAAAAGUUUCAAAAAGUAUCUAAAAGUAUCUAAAAGUAUCUAAAAGUAUCAAAAAGUAUCAAAAAAUAUCAAAAAGUAUCAAAAAGUAGCAAAAAAUAUCAAAAAGGAUCAAAAAUUAGUUAAACAAAAA'
p320
aF1.0
aa(lp321
S'Campfire'
p322
aS'....((((..(((((..((((..((((.....))))((((((...))).)))))))((((((.((.((.(((((....)).)))))))(((((.((.((.((....))))))(((((.(((....)).))).)))..)).)))))).))))))))(((.(((.(((.((((....))))))))))((((((((...))).)).))).)))))))'
p323
aS'AAAACAAUGUCUUUCAAGAUCCAUCGCAAAAGGUGAAUGCCCUAUGGAACAUGAUCGGCUUAACAAUCAACCACGAAAGUGGGCGAGGGAAACGGCAUCAGGAAAGCUGAGCUAGACAUGGGAAAACCGGUGGUAAAAUAUACUAGAAUCUAAAGGUCAGUCAGACAGAGCGAAAGCUUGUUGGCGGCAGUUGUAUCAGAUAGGCCGGACGUUG'
p324
aF0.8925233644859814
aa(lp325
S'Anemone'
p326
aS'...((((((....))))))(((((....)))))((((((....))))))(((((....)))))((((((....))))))(((((....)))))(((((....)))))((((((....)))))).(((((....)))))((((((....))))))(((((....)))))((((((....))))))(((((....)))))((((((....))))))'
p327
aS'AAAGCGAUCUAAUGGUCGCGCUAAUAAUUUAGUGCUUAGUAAUUUGAGCGUUACGAAAGUAGCGCUAUCGAAAGAUAGCGUAUAGAAAUAUACGAGACGAAAGUCUCGUGUUCGAAAGAGCGCAGUUUCUAAUGGAACGAGGGCUAAUGUCCUCGUGCAAAAGUGUACGAUUUCAAAGGGAAUCGUGACGAAAGUCACGGUAUCGAAAGAUACC'
p328
aF1.0
aa(lp329
S'Fractal 3'
p330
aS'.....((((.(((.((....))((....)).))).(((.((....))((....)).))).(((.((....))((....)).))).(((.((....))((....)).))).)))).....'
p331
aS'AAAAGAGUUAAAAGCGGAAACGCCGAAAGGAGUGGUGCUCCAAAGGGCCUAAUGGUGUAGUCAUAUAACGAGUCUAAUGCUAGGAAACGACAAAGCUGGAAAUUCAGUCGGACUAAAAA'
p332
aF0.8151260504201681
aa(lp333
S'Kyurem 5'
p334
aS'.....((((((((((....)))(((....((((((((...(((.....)))))))(((......))).))))))))))..))))....................'
p335
aS'AAAAAGAUAGACGACGAAAGUCCCCAAAAUUACGAUUAAAGUCAAAAAGACAAUCGAUAAAAAGAUCAGUGAGGGGUUAAUAUCAAAAAAAAAAAAAAAAAAAA'
p336
aF1.0
aa(lp337
S'Snowflake Necklace ( or v2.0 )'
p338
aS'(((((((((((((((.(((((.((.....)).((.....)).((.....)).((.....)).((.....)).))))).(((.....))).(((((.((.....)).((.....)).((.....)).((.....)).((.....)).))))).(((.....))).(((((.((.....)).((.....)).((.....)).((.....)).((.....)).))))).(((.....))).(((((.((.....)).((.....)).((.....)).((.....)).((.....)).))))).(((.....))).(((((.((.....)).((.....)).((.....)).((.....)).((.....)).))))).)))))))))))))))'
p339
aS'GAUUGUGGCAAAGGGAGCAGCAUGAAAACCAGGCAAAAAGCAGAAAAAGAGACGAAAAACGGGCAAAAAGCAGCUGCGAUGAAAAGCACAUUUACAACAAAAAGGAGCAAAAAGCAGUAAAAAACAGCAAAAGGCGGCAAAAACCAGUAGGAUACAAAAAGUGAAUUAGAACAAAAAGUAACAAAAAGUCGUAAAAAAUACCAAAAAGGGGGAAAAAUCGCUAAGAGAGAAAAACUCAGCUCCACCAAAAAGGAUCAAAAAGAACCAAAAAGGAGCAAAAAGCAGUAAAAAGGAGGAACAGUCGAAAAGACAGACCGACCUAAAUGGACAAAAAAUUAACAAAAAGUACCAAAAAGGAGGAAAAACCGUGGUCGCUUUUUGUCGCAGUC'
p340
aF0.9588688946015425
aa(lp341
S'Methaqualone C16H14N2O Structural Representation'
p342
aS'.......((((.((((.(((.(((....))).(((.(((....))).(((.(((....))).(((.(((....))).(((......))).))).))).))).))).(....).)))).((((...(((.(((...((....))........))).(((.(((....)))(((....)))(((....)))))).)))...((((.(....).(((.(((.(((.(((.(((...(((....))).))).(((....))).))).(((....))).))).(((....))).))).((((((....)))(((....))).(((....)))))).))).))))...)))).)))).......'
p343
aS'AAAAAAAGAUCGAUACGCUUACUCGAAAGAGUACUGCUGGAAAGAAGGAAGUACGAAAGUGAGACAAUCGAAAGGUAAGUAAAAAGGCUGGUGAUUCAAGCUAAGAGGAAACAGUUCAGAUCGAACCCUUUAAAAGCGAAAGCAAAAAAAACGAUGAGACUCAAAGGACCCCGAAAGAGAUCGAAAGAUUUCAGGGAAAGAUGAGGAAACGGAAGGUCACGCAGAGUAUCAAGGACGAAAGUCAGAUAACCGAAAGGAUCUCACUCUAAUGAGAGCGAGACGAAAGUCAGACAGUCAGCGAAACUCGACGAAAGUCUUUUGAAAGAGGACAGUCAUAUCGAAGAACAGAUCAAAAAAA'
p344
aF0.8603351955307262
aa(lp345
S"Cat's Toy 2"
p346
aS'....((((((((....((..(...................)..(((...((....))...((....))........))).......))))))))))....'
p347
aS'AAAUGAUAUUGAAAAUUUAAUAAAAAAAAAAAAAAAAAAGAGGGGGAAUGCGAAAACAAGAUAAAUGCAAAAAAAAUUAAAAAAAGAGUUGGUACUUAAA'
p348
aF0.96
aa(lp349
S'Zigzag Semicircle'
p350
aS'....(((((((((.((....))).)).).)))))....'
p351
aS'AAAAAUUAGCGAUUCAAAAGGUAUAAACCCUAGUGAAA'
p352
aF0.9473684210526315
aa(lp353
S'Short String 4'
p354
aS'......((.((..((..(...(.((.((....))))..)...(.((..((....))..))..)...).))..)))).....................'
p355
aS'AAAAAAGGCGCGUCAUGUAAAUGUUACGGAAAUGGAAAGAAGUACCAUCGGAAACGCAAGAAAAAGAUUACAGCCGGCAAAAAAAAAAAAAAAAAAA'
p356
aF0.9587628865979382
aa(lp357
S'Gladius'
p358
aS'((....))..(...(...(..(.(..(...(((.(((...((((....)))).((((((.((((((.((((((.((((((.((((((((((.((((((.(((((.((((.((((..((((...)))).))).)))))).))))).)))))).)))))))).)))))).)))))).)))))).))))))).)))...(((.(((((.(..((((.(..((((.(..((((.(..(((((((.((((((.(((((.((((((.(((.((((((....))))))..)))).)))).))))).)))))).)))))))).)..)))).)..)))).)..)))).)..))))).((((....))))...))).)))...)..).)..)...)...)..((....))'
p359
aS'CCGAAAGGAUCAAACAAAGAUGCGGAGAAAGGCAGCCGAUGAUAGAAAGUUGUGCAUACAGCGGUCACGGGGCACGUGGAACGUGUGGGGAAGGGGUCAGAUGCAGAUUUGGACGUGUAGAAGUUGCUGUCACGAUCGACGUCGAAUCCCAGCUCUGUGCAGUCUACAGGCCCCAGGACCGACGUAUGCAGGGAAAGACACGCUCAGAAGAUCAGUGGAUCAGAAGAUCGGUUGAGGUACAGGGGUCAGUGGCAAGGUGGCGACAGAAAUCUAAUGAUUUCAGGUCCAUACCCAGCCAACGACCCACGUAUCUAUCAAGACCGCAGGAUAACAGGGUCACACGAGUGAGAUCAAAGGAUCAAAGAAGGACGAACCACACUUUAAAGGAAUAAAAUAAGGU'
p360
aF0.91
aa(lp361
S'Thunderbolt'
p362
aS'((..(((((........(.((..((.(.....(....).((((((((.........((......((((.....))))......))...((..((.......(..(......)..)..((..((.....((....)).((((.....(((.....(..((.(...).))..).....))).((((...(.......(..(.((...)).)..).......)...))))........)))).....((((((...)))))).))..))...........))..)).........(..((((....))((((((.....(........).....))))))..))..)...))))))))........).))..)).).....(.......).)))))..)).'
p363
aS'CGAGGGUGGAAAAAAAACAGGAAUCUUAAAGGGAAAGCAGAGAGGCAAAAAAAAAGGCGAAAAUCAGGAAAAACUUGUAAAAAGCGAAGCAGGCAAAAAAUAAGUGAAAAAAAGUUAGGUGUGAAAAGGGGAAACCAGACCAAAAACAGGAAAUUGGCCAGAAACAGGAAGUAAAACUGUGGUCGAAUAAAAAAAGAGCAGCAAGGCGGAGCAAAAAAGAAAAGGCCAAAAAAAAGAUCGUAGUGUUGUAAAAUACAGCAUAAUCUGAAAAAAAAAAGCAAGCAAAAAAAAAAAAGCCAGAAAGGCCAUGGAAAAAGAAAAAAAACGAAAGUCAUAGAAGGAAUAAAUGUUUGUCGAAAAAAAGAGAAAGCGCAAAAACAAAAAAAGAUUAUCGGUGA'
p364
aF0.9170854271356784
aa(lp365
S'Mutated chicken feet'
p366
aS'.......((.((.((....)).((...))...)))).((.((.((....)).((...))...)))).((.((.((....)).((...))...)))).......'
p367
aS'AAAAAAUGAAGGAUAGAAAUGGCCUAUGGAAGGUUCUGGUACAGCCAAAGUAUGGAAGAAAAGCGCAGCAGCGAUAAAGGUGGGAAGGCAAAACGCGAAAAAA'
p368
aF0.9223300970873787
aa(lp369
S'Chicken Tracks'
p370
aS'........(((((((((((....))))..((((....))))..((((....)))))))))))..(((((((...))))..((((...))))..((((...))))))).........'
p371
aS'AAAAAAAUGAUAGAUGAUCGAAAGAUCGAGACCAAAGGGUCGAGAGCAAAGGCUCAUCUAUCUAGCCGAUGAAACAUUGAGAUCAAAGAUCGACGGCGAAGCCGGGCAAAAAAAAA'
p372
aF1.0
aa(lp373
S'Looking Back Again'
p374
aS'(((..(((((((.....((((((...)))))).))))..((((((..(((...)))))).(((((...((((....))))....)))))..)))..)))..(((((((.....(((((....)))))......)))((((((((((...)))))(((((...)))))((((((((..(..(..(..(..(..((((....))))..).)..))..).))(((....)))..))))))...))))))))).(((((.((((......(((((((........((((.....))))))))...))).))))((((......((((((((....))))))..(((((...)).(((((...)))))..)))))....)))))))))...)))'
p375
aS'GUUUAGAGGAUCUAAAGGCUAUCAAGGGUAGCAGAUCGUCACCUAAAGACGAAGUCGAGAGAUACAAGGAUCGAAAGAUCAAAGGUAUCAAGCCAAAUCGUGGGCCACUAAAAGAAUCGAAAGGUUCGAAAAUGUGGCCACCAUACAAAGUGUGGAAACGAAAUUUCUAUAGAGCUACAAUAAGGUUGCCAACGAGUAAUCUUGGGGAGUAGAAAGGGGCUGGAAAUAGAAGCUAUAAAAGGGGCGCCAUGAAAGACUACAAAAAAGACAUACAAAAAAAAGCACAAAAAGUGCGUAUCAAGUCAGUAGCAUCAAAAAAGGCUAUACGAAAGUAUAGUAGCCGUAAGAAACUACCAAGGGUAGGACGCUCAAAGGAUGGCGUAAAUAGC'
p376
aF0.9151670951156813
aa(lp377
S'Multilooping 6'
p378
aS'..(((((((((((((....)))))(((((....))))))))((((((((....)))))(((((....)))))))))))))..'
p379
aS'AUGAUACGGCGGGGUAAAGACUUCGAAGGUAAUCGCGUGUUGACAGCAUUAAUAUGUUAAUAUAAAGAGGUUGACCUAUCUA'
p380
aF0.926829268292683
aa(lp381
S'Cesspool'
p382
aS'((..(..((....))..(((.(..(.(((...)))..)..)..)))..(..(....)..).(..(....)..).....((....))..)..))..((..(..((....))..(((.(..(.(((...)))..)..)..)))..(..(....)..).(..(....)..).....((....))..)..))..((..(..((....))..(((.(..(.(((...)))..)..)..)))..(..(....)..).(..(....)..).....((....))..)..))..((..(..((....))..(((.(..(.(((...)))..)..)..)))..(..(....)..).(..(....)..).....((....))..)..))'
p383
aS'GGUAGAAAUGAAAGUAACUCACAUUGCACAAAGUGAAAAAGAAGAGGAAAAUGAAAGAAUAAUAAAAAGGUCUAGAACCUGAAAGGAAUCUUCAAGCCAGAGGCGAAAUUAACUCAUAUUAGACAAAGCAACGUAAAAGAAGAAAAGGAAAUAAUAAAAUGAAAAAAUGGAACCCGAAACAAAGAUGCAAACGACAACGGAUCUGCACUGAGAAGAGACAAAGUUAAUAACAACAGGAAAAUGAAAGAAUAAAAUGAAAAAAUGGAAUCAAAAGUGAAAAAGCAAUCAAUAAGCGAAAGGCAGCCAAAACGCAGAAAUUGAAGACUAAGGCGAAAGGGAAAUAAUAAAAUGAAAAAAAGGAACAUGAAAGUAAAGGGC'
p384
aF0.7936507936507936
aa(lp385
S'Hoglafractal'
p386
aS'(.(((..(((((....(((((......))))))))))((((...((((.....))))))))(((..(((....)))))).(((...((((...((((......))))))))(((..(((.....))))))((.((....)))).((((....(((..(((......))))))((.((.....))))(((....))).(((((.....((.((......))))(((.....)))((....)).((((((......(((......)))((.....))...(((((((...))))))).......))))))......))))).....))))....)))...)))..)...(.((.((((....((....))((....))((((((...)))))).)))))).)'
p387
aS'AAGAUUACUAGCAAAAGAUACGAAAAAGUAUCGUUCGCAACAAAGCUCAAAAAGAGCGUUGGUUAAGACGAAAGGCGAGAGACAAAGAGCAAAGAUCUAAAAUGAUUGUUCGGGAAGCCAAAAAGGCCUCGCAGCGAAAGCGCUGGUCAAAAGACAAAACAAAAAAGUUGUCGCACCAAAAAGGGCUACGAAAGUAUGUAUCAAAAAGCAUUUAAAAUGAGCAGGUAAAUACGCCAAAAGGAUAUGUGUAAAAAGUCAAAAAGGACGCGAAAAGCAAAGUAUCUGAAAUAGAUACAAAAAAUUAUGUCGAAAAAGGUACAAAAAGAACUAAACGCGAUCUCAAUAAAGAGCAGAUCGCAACUGAAAAGCCAACAGCGGAUACGAAGUAUCCAGCUUGGAU'
p388
aF0.99
aa(lp389
S'Bullseye'
p390
aS'...(((((((...))))..((((...))))..((((...)))))))........(((((((...))))..((((...))))..((((...)))))))........(((((((...))))..((((...))))..((((...)))))))........(((((((...))))..((((...))))..((((...)))))))...'
p391
aS'AAUUUCCAUCUAUGAUGGUUGUAAAAUACGUACAUGGAACAUGGGAUAAAAAAUGAUGAUUGGAAGCCGUAUUUAAGAAGUUAGUUUGAAAAUCGUUUAAAAAAAUAACCGCUAUCUGCGAUACCAAAGGUGGAGGAUUAUGGUCUUGGAAAAAAUUUGCAUGUAUUAUGGGAGUUAAGGACUAAUAUUAAAAAUGCAAUAA'
p392
aF0.8316831683168316
aa(lp393
S'Shooting Star'
p394
aS'(((((((((((((((((...(.(..((.(((.(((.((....).))).)))).).)..))..))))))).(((((..(.(..((.(((.(((((.(((.((((.((....).)))).))))).))).)))).).)..))..)((....))..))))(((((((((...))))).(((((...)))))(.(....).).)))).)))).((((.((((...(((((((...))))))).(((((...)))))))))(((((((...))))))).(((((...)))))))))((((..((....))(..((..(..(.(.(((.((((.((....).)))).)))).)..)..).))..))))).)))))).'
p395
aS'GUCAUCGGAGGAUAGAGUAAGAGAAGCGGACAUGUAGCAAAGGACGUUUGUCAGACGGCCAUCUCUAUCAGAGACGGCAGAACUAGACAUGAGAAGACAGCACAGAGAAAUAUGUGCCGUUUACUCAGGUCAAGGGAUGAUGGCAAAGGCAACCUCCUGUGCAUCGAAGAUGCACGAUCAAAGAUUGAAGAAAGCAGAACAGACAUCAGAUCACUACAAUUUUCUCGGAAUGAGAGAUCAAUGAAACAAUGGUAGCUAUAUGAAGUAUAUAGACAAUAAAAUAUUGGAGCGAUCAAUCUAAUGACGACCAAGGUUGUAGCCAGGGGAGCGAAAGACUCCACGGCGACAAUACGGGAAGGAUCAGAUGACA'
p396
aF0.9081081081081082
aa(lp397
S'Teslagon'
p398
aS'......((.......((.((.......((.((...............)).........((...............)).)).......)).((.......((...............)).......)).((.......((.((...............)).........((...............)).)).......)).((.......((...............)).......)).((.......((.((...............)).........((...............)).)).......)).((.......((...........((...............)).)).......)).)).......))......'
p399
aS'AAAAAAUCAAAAAAAACAUAAAAAAAAGUAACAAAAAAAAAAAAAAAGCGAAGAAGUGGCAAAAAAAAAAAAAAGCUAGCAAAAAAAUGAUAUAAAAAGUCUAAAAAAAAAAAAAUGAAAAAAAUGAAGGUAAAAAACAAGCAAAAAAAAAAAAAAAGUGAUGAAAUAUGAAAAAAAAAAAAAAAGGGUGAAAAAAUUCGUCAAAAAAAGGGAAAAAAAAAAAAAAUCAAAAAAAGGUGGGAAAAAAACAGAAAAAAAAAAAAAAAAGCAAUGAAAUAGCAAAAAAAAAAAAAAAGCGCUGAAAAAACCUGGGAAAAAAGCAAAAAAAAAAAGCAAAAAAAAAAAAAAAGCAGAGAAGAAACUAACAAAAAAAGAAAAAAA'
p400
aF0.9133858267716536
aa.