(lp0
(lp1
S'Simple Hairpin'
p2
aS'(((((......)))))'
p3
aS'GUAUCAAAAAAGAUAC'
p4
aF1.0
aa(lp5
S'Arabidopsis Thaliana 6 RNA - Difficulty Level 0'
p6
aS'(((((((....(((...........)))((((((((..(((((((((((((((((((...(((((......))))).)))))).)))))))))))))..))))))))..)))))))'
p7
aS'GUCUUACAAAACUCAAAAAAAAAAAGAGCAUAUUACAGCAUAUUAUUACUGGAUAUUAAAGUAUCAAAAAAGAUACGGAUAUCACAGUAAUAAUAUGAAGUAAUAUGAAGUAAGAC'
p8
aF1.0
aa(lp9
S'Prion Pseudoknot - Difficulty Level 0'
p10
aS'((((((.((((....))))))).)))..........'
p11
aS'GUGCACAGUACGAAAGUACGUGACACAAAAAAAAAA'
p12
aF1.0
aa(lp13
S'Human Integrated Adenovirus - Difficulty Level 0'
p14
aS'((((((((((((((.((((((...........((((((((((((.....((((((((....(((((((((((((........))))))))))....))))))))....))))))....)))))...((((((.......))))))))))............)))))).))))....))))))...))))...'
p15
aS'UACGCGAAUGGAUGGCAUACCUAAAAAAAAAUCCAUAUCAGCGCAAAAAGGGCAUACACAACGCCGUAUUAUUCAAAAAAAGGAAUAAUACGAAAAGCGGUAUGAAAACCCGCGAAAAUUGAUCCCAUCUGCAAAAAAAGUAGAUAUGGUAAAAAAAAAAUGGUAUGACAUCAAAACAUUUGAAAUGUAGAA'
p16
aF1.0
aa(lp17
S'The Gammaretrovirus Signal - Difficulty Level 0'
p18
aS'..(.(..((((((....))))))..).)......((((..(((.(((((((((....)))))....)))))))))))..((((((((....))))))))..'
p19
aS'AAGGGAAGUCUUCAAAAGAAGACAACGCAAAAAAGUACAAGUCAGUACCAUAGAAAACUAUGAAAAGUACGACGUACCAGUCUCAUCAAAAGAUGAGGCAA'
p20
aF1.0
aa(lp21
S'Saccharomyces Cerevisiae - Difficulty Level 0'
p22
aS'(((((((((((........)))).((...............))....(((((.......))))))))))))....(((((((..((((........))))(((.............)))....(((((.......))))))))))))....(((((((..((((........))))((((((.......))))))....(((((.......))))))))))))....(((((((..((((........))))((((((.......))))))....(((((.......))))))))))))....(((((((..((((........))))((((((.......))))))....(((((.......))))))))))))....'
p23
aS'GUCUUACUUACAAAAAAAAGUAGAGCAAAAAAAAAAAAAAAGCAAAACAUACAAAAAAAGUAUGGUAAGACAAAAGUCUAACAACUACAAAAAAAAGUAGGUCAAAAAAAAAAAAAGACAAAAGUAUCAAAAAAAGAUACGUUAGACACAAGUCUUGGAACUACAAAAAAAAGUAGGUCUUGAAAAAAACAAGACAAAAGUAUCAAAAAAAGAUACCUAAGACACAAGUCUGAGAACUACAAAAAAAAGUAGGUCUUCAAAAAAAGAAGACAAAAGUAUCAAAAAAGGAUACCUCAGAUGCAAUUUUUAGAACUACGAAAAAAAGUAGGUCUUCGAAAAAAGAAGACAAAAGUAUCAAAAAAAGAUACCUAAAAAAAAA'
p24
aF1.0
aa(lp25
S'Fractal 2'
p26
aS'.....((((((((...((((((((((..((((..........))))..((((..........))))..((((..........))))..))))))))))...((((((((((..((((..........))))..((((..........))))..((((..........))))..))))))))))...((((((((((..((((..........))))..((((..........))))..((((..........))))..))))))))))...)))))))).....'
p27
aS'AAAAACUGUUAGCUAUGGUCGAUUAGGUGUCCUAAAAAAAAUGGACUGUUACGAAAAAAAAAGUAGAACUUCAAAAAAAAAAGAAGGAUUAAUUGACCUAUAUCUUAGGUCAACGAUAAAAAAAAAAGUCGGAGAAGGAACAAAAAAUUUCGAUGGCAAAAAAAAAAGCUAGGGAUCUAAGAUUAUGGCUUAUGACAAUGGCAAAAAAAAAAGUUAGAGUUCAAAAAAAAAAGAACAGGACCGAAAAAAAUAGGUUAAGUCAUAAGUCUAUGUUAACAGGAAAA'
p28
aF1.0
aa(lp29
S'G-C Placement'
p30
aS'((((...)))).'
p31
aS'GUACAAAGUACA'
p32
aF1.0
aa(lp33
S'The Sun'
p34
aS'(((.(((((((...))))..))))))...(((.(((((((...))))..))))))...(((.(((((((...))))..))))))...(((.(((((((...))))..))))))...(((.(((((((...))))..))))))...(((.(((((((...))))..))))))...(((.(((((((...))))..))))))...(((.(((((((...))))..))))))...(((.(((((((...))))..))))))'
p35
aS'GUCAGUGCAUUAAAAAUGAACACGACUAAGGUAGUCCAUCAAAGAUGAAGACGUCAAAGUUAGUCCAAUGAAAAGGAAGACGACUAACACAGUGCAUGAAGUAUGCACACGUCGAGUUCGUUGCGUUUAUGACGAAUCGCAGAAAAUCAGUGCAUCAAGGAUGAACACGAUGAACUGACUGCGUCGAAGAAGAAGACCAGAAAGGCAUCCAAUUAUAGAUUAACAUAACAAAAUCAUUCCAACAAGGUUGAAGAGGAU'
p36
aF0.9302325581395349
aa(lp37
S'Frog Foot'
p38
aS'..........((((....))))((((....))))((((...))))'
p39
aS'AAAAAAAAAAGUACGAAAGUACGAGCGAAAGCUUCUACAAAGUAG'
p40
aF1.0
aa(lp41
S'InfoRNA test 16'
p42
aS'((((((.((((((((....))))).)).).))))))'
p43
aS'GUCUUAGGCGCUAUCGAAAGAUGGACGACGUAAGAC'
p44
aF1.0
aa(lp45
S'Mat - Martian 2'
p46
aS'((((....))))...(((((((..(((((((.......))))))))))))))...((((((((......(((((((.(((((((.......))))))))))))))...((((((((((((((.......))))))).)))))))......))))))))...((((((((((((((.......)))))))..)))))))...((((....))))'
p47
aS'GUACGAAAGUACAAAGUCUUACAAGUCUUACAAAAAAAGUAAGACGUAAGACAAAGUCUUAUCAAAAAAGUCUUACAGUCUUACAAAAAAAGUAAGACGUAAGACAAAGUCUUAGGAUAUUCAAAAAAAGAAUAUCACUAAGACAAAAAAGAUAAGACAAAGUCUUAGGAUAUUCAAAAAAAGAAUAUCAACUAAGACAAAUAUCGAAAGAUG'
p48
aF1.0
aa(lp49
S'square'
p50
aS'((((((((((((((((((((((((((...))))))....)))))))....))))))....)))))))'
p51
aS'GUCUUACGUAUUCGUAUUACGUAUUCAAAGAAUACAAAAGUAAUACAAAAGAAUACAAAAGUAAGAC'
p52
aF1.0
aa(lp53
S'Six legd turtle 2'
p54
aS'.....((...((....))...((....))...((....))...((....))...((....))...((....))...))....................'
p55
aS'AAAAAGCAAAGCGAAAGCAAAGCGAAAGCAAAGCGAAAGCAAAGCGAAAGCAAAGCGAAAGCAAACCGAAAGGAAAGCAAAAAAAAAAAAAAAAAAAA'
p56
aF1.0
aa(lp57
S'Small and Easy 6'
p58
aS'(((((.....))..((.........)))))'
p59
aS'AUACUGAAAAGGAACGGAAAAAAAACGAAU'
p60
aF0.8666666666666667
aa(lp61
S'Fractile'
p62
aS'............((....))...((...((....))..((...((....))...))..((....))...))..((....))........................'
p63
aS'GUCAAAAAAAAUGAUAAUGCUAUCUAAGUGGAAACAAAGGAUUCAUAAUUGUCGAUAACAGAAAUGGCGGGUCGAUAAUGUCACAAAAAAAAAAAAAAAAAAAAA'
p64
aF0.9428571428571428
aa(lp65
S'Six legd Turtle'
p66
aS'.....((....((....))....((....))....((....))....((....))....((....))....((....))....))....................'
p67
aS'AAAAAGCAAAAGCAAAAGCAAAAGCAAAAGCAAAAGGAAAACCAAAAGCAAAAGCAAAAGCAAAAGCAAAAGUGAAAACAAAAGCAAAAAAAAAAAAAAAAAAAA'
p68
aF1.0
aa(lp69
S'snoRNA SNORD64'
p70
aS'((((((.....(((....(((...(((((.............)))))....)))..)))..))))))'
p71
aS'GUCUUCAAAAACUCAAAACUCAAAGUAUCAAAAAAAAAAAAAGAUACGAAAGAGAAGAGAAGAAGAC'
p72
aF1.0
aa(lp73
S'Chalk Outline'
p74
aS'.....((((.(((((....)).))).(((.(((....)))))).((((((....)).)))).(((((....))).)))))).......................'
p75
aS'AAAAAGUACACAGCCGAAAGGACUGACUCAGUCGAAAGACGAGAGUCGGCGAAAGCACGACAGGCUCGAAAGAGACCGUACAAAAAAAAAAAAAAAAAAAAAAA'
p76
aF1.0
aa(lp77
S'InfoRNA bulge test 9'
p78
aS'(((((((.(.(.(.(((((((....)))))))))))))))))'
p79
aS'GUCUUACAGAGAGAGUCUUACGAAAGUAAGACCCCGUAAGAC'
p80
aF1.0
aa(lp81
S'Tilted Russian Cross'
p82
aS'.....((((((((....))))((((.((((....))))(((((....))))).((((....))))))))((((....))))))))....................'
p83
aS'AAAAAGACCGGCCUAAUGGCUCGACAGUACUAAUGUACGCUUCGAAAGAGGCAGUGGGAAACCACGUCGUUUGGAAACAAAGGUCGAAAAAAAAAAAAAAAAAAA'
p84
aF1.0
aa(lp85
S'This is ACTUALLY Small And Easy 6'
p86
aS'................................................................................................................................................................................................................................................................................................................................................................................................................'
p87
aS'AAAAAAAAAAAAAAAAAAAAAAAAAAAAAAAAAAAAAAAAAAAAAAAAAAAAAAAAAAAAAAAAAAAAAAAAAAAAAAAAAAAAAAAAAAAAAAAAAAAAAAAAAAAAAAAAAAAAAAAAAAAAAAAAAAAAAAAAAAAAAAAAAAAAAAAAAAAAAAAAAAAAAAAAAAAAAAAAAAAAAAAAAAAAAAAAAAAAAAAAAAAAAAAAAAAAAAAAAAAAAAAAAAAAAAAAAAAAAAAAAAAAAAAAAAAAAAAAAAAAAAAAAAAAAAAAAAAAAAAAAAAAAAAAAAAAAAAAAAAAAAAAAAAAAAAAAAAAAAAAAAAAAAAAAAAAAAAAAAAAAAAAAAAAAAAAAAAAAAAAAAAAAAAAAAAAAAAAAAAAAAAAAAAAAAAAAAAAAAAA'
p88
aF1.0
aa(lp89
S'Shortie 4'
p90
aS'((....)).((....))'
p91
aS'CGGAAACGGGCGAAAGC'
p92
aF1.0
aa(lp93
S'Shape Test'
p94
aS'.....(.((((..(((((........)))))..(((.(((.(((((.....))))).((((....)))).))))))..)))).)....................'
p95
aS'AAAAAGUCUACAAGUAUCAAAAAAAAGAUACAAGUCAGUCAGUAUCAAAAAGAUACGGUUCGAAAGGACAGACGACAAGUAGUCAAAAAAAAAAAAAAAAAAAA'
p96
aF1.0
aa(lp97
S'The Minitsry'
p98
aS'(((.....(((.....(((.....(((.....(((........))).))).))).))).)))'
p99
aS'GUUAAACUGCUAAAACGCCCAAAAGGGAAAAAUAGAAAAAAAAUUAACCCGGGCAAGUUAAU'
p100
aF0.9032258064516129
aa(lp101
S'stickshift'
p102
aS'..((((((((.....)).))))))..'
p103
aS'AAGUCUUCCCAAAAAGGAGAAGACAA'
p104
aF1.0
aa(lp105
S'U'
p106
aS'.....(((((.(.(.((.(.(((((((((....))))))))))))))))))).....'
p107
aS'AAAAAGUAUCAGAGAGUUGAGUCUUAUUCUAAUGAAUAAGACCACCCGAUACGAAAA'
p108
aF1.0
aa(lp109
S'Still Life (Sunflower In A Vase)'
p110
aS'...((((..(((((.....)))))..(((((...)))))..(((((.....)))))..(((((...)))))..(((((.....)))))..(((((.....))))).((((((((((((((((((((((((((((......))))).(((((.............((((.........................................)))).............)))))(((((....))))).)))))))))))))))))))))))..(((((.....)))))..(((((.....)))))..(((((.....)))))..(((((.....)))))..(((((....)))))..(((((.....))))).))))...'
p111
aS'AAAAUACGAGCGCUAAAAAAGCGUGGGGAUCAAAGAUCCAUGUAACGAAAAGUUACUAGCAUCAAAGAUGCCACGGUGGAAAAUAUUGACGUUUGAAAAACAAGCCCAUGGGAGAGUUAUUAUUAAUGCGUAUCUAAAAUGAUACCGAUUCAAAAAAAAAAAAUGGGCAGAGAGAGAGAGAGAGAGAGAGAGAGAGAGAGAGAGUUAUGGUCCUAAAAAAAAAAAGGAAUCGUUACUAAUGUAGCGGUAUUAAUAGUAACUUUCCCGUGCAGUAUCAAAAGGAUACGUGGGUUAAGACAACCUUAUUUUCUAAAUGAAAAGAGAUGCAAAAAGCGUCGAGCAUCAAAGGAUGCGAGUUGCAAAAAGUGACAGUAUAAA'
p112
aF1.0
aa(lp113
S'Quasispecies 2-2 Loop Challenge'
p114
aS'.....((((((((..((((....))))..)))).((((..(...)..)))).((((..(..(((.....)))..)..))))))))....................'
p115
aS'AAAAAGUCCGUUAGGGUCCGAAAGGACAAUAACAGGUCAGCAAGGAGGACCGCGGGUACAGCUUGAAAAAAGAGGGUCCUGGGACAAAAAAAAAAAAAAAAAAAA'
p116
aF1.0
aa(lp117
S'Corner bulge training'
p118
aS'.(((((((((((...)))))....)))))).'
p119
aS'AGUCUUCGUAUCAAAGAUACAAAAGAAGACA'
p120
aF1.0
aa(lp121
S'Spiral'
p122
aS'.....((((.((((((.(((.(((((.((((.((((.((.((.((.((.((.((.....)))))))))))))))))))))))))))))))))))))).....'
p123
aS'AAAAAGGACAGUGUUCAGUCAGUAUCAGUACAGUACAGUUGUUGUUGUUGUUGCAAAAGGCACACACACACGUACGUACGAUACGACGAAUACGUUCGAAAA'
p124
aF1.0
aa(lp125
S'InfoRNA bulge test'
p126
aS'.............................((((......((((....((((...((((..((((.((((.....)).)).)).))..)).))...)).)).....)).))......)).)).'
p127
aS'GUCAAAAAAAAAAAAAAAAAAAAAAAAAAGGCCAAAAAAUGACGAAACGCUGGAGGCCUACGCCGCGCCAAAAAGGACGAGGAUGAUGGACCAAAAGACGAAAAAGUACAAAAAAAGGACCG'
p128
aF1.0
aa(lp129
S'Worm 1'
p130
aS'.......(.(.(.(.(.((.((.(....).)).)).).).).).)'
p131
aS'AAAAAAAGGGGGGGAGACCGCCGCGAAAGGGGGGGACGCGCGCGC'
p132
aF1.0
aa(lp133
S'just down to 1 bulge'
p134
aS'.....((((.(((((....))))).(((....))).)).))....((((.(((....))).(((....))).))))....................'
p135
aS'AAAAAGGCCAGUAUCGAAAGAUGCAGUCGAAAGACAGGACCAAAAGUACAGUCGAAAGACAGUCGAAAGACAGUACAAAAAAAAAAAAAAAAAAAA'
p136
aF1.0
aa(lp137
S'Iron Cross'
p138
aS'.(((.(((...(((.(((...))).(((....))).)))...(((.(((....))).(((...))).)))...(((.(((....))).(((...))).)))...))).(((...))).)))..'
p139
aS'AUUGUAUCGAGGGGACAGGAACGGUGGGAAAGUCCGCCUAAUCGUGGUUUGAUGACGUUCGAAGAAAGCGUAAUGAGUUCAAAGGGAUUCCAAAGGGUUUGGAAGAUUGUGAAAGAUUUAGGA'
p140
aF0.8780487804878049
aa(lp141
S'loops and stems'
p142
aS'.....(((((((...((((...((((...((((.........(((((............)))))...))))....((((..........))))...))))...(((........)))...))))..((......))...))))))).....'
p143
aS'AAAAAGUCAUUCAAAGUACAAACUCCAAAGUCGAAAAAAAAAGUAUCAAAAAAAAAAAAGAUACAAGUGACAAAAGGACAAAAAAAAAAGUUCAAAGGAGAAAGGCAAAAAAAAGCCAAAGUACAAGCAAAAAAGCAAAGAAUGACAAAAA'
p144
aF1.0
aa(lp145
S'Water Strider'
p146
aS'.....((.((..(((((.(((....)))(((....)))))).....((((((....)))(((....))).)))))..)).)).....................'
p147
aS'AAAAUGGACUGGUGGGACAUGCAAUCAUUGUAAAGGCAUUCAGACAGUUUUAGAAAGACCAUUAAUACGUAGCCAAAGUGUGUUGAAAAAAAAAAAAAAAAAA'
p148
aF0.912621359223301
aa(lp149
S'The Turtle(s) Move(s)'
p150
aS'...((....))....(((((((((.........)))))))))....((((.....)))).....(((....)))...(((((.......)))))....(((...((....)).....(((....)))....((((((.......))))))....(((....))).....((((((....(((.......)))..(((........)))...(((((......)))))...((((.....))))..)))))).........((....)).....((....))......(((((..........)))))......)))'
p151
aS'AAACGGAAACGAAAUGUAUUAUUCAAAAAAAAAGAAUAAUACUAAAGUGCAAAAAGCACAAAAAGGCAAAGGCCGAAGUAUCAAAAAAAGAUAUAAAAGCCAAAGCGAAAGCAAAAAGUCGAAAGACAAAAGUCUUCAAAAAAGGAAGACAAAGCUCGAAAGAGGCAAGGUCUUAUAAGGUCAAAAAAAGACAUGUCGAAAAAAAGACUAAGUAGGAAAAAACCUACGAAGUAGAAAAACUACAUUAAGACAAAAAAAAAGCGAAAGCAAAAGGCAGAGGCAAAAAACAUACAAAAAAAAAAGUAUGAAAAAAGGC'
p152
aF1.0
aa(lp153
S'Adenine'
p154
aS'(((((.((((((.((((((.((((((.((((((.((((((....((((((......)))))).)))))).(((((...(((((((...)))))))))))).)))))).((((((((((((...)))))))...))))).))))))....))))))....))))))....)))))'
p155
aS'GUAUCGCAUAUCGCAUAUCGCAUAUCAGUCUUCAGUCUACAAUGCAUAUCAAAAAAGAUAUGGGUAGACACAUAGAAAGUCUUACAAAGUAAGACCUAUGAGAAGACAGUCUCCAUAUUCAAAGAAUAUGAAAGAGACAGAUAUGAAGAGAUAUGAAGAGAUAUGAAGAGAUAC'
p156
aF1.0
aa(lp157
S'Tripod5'
p158
aS'..((((((((.....))))((((.....))))))))..'
p159
aS'AAUCCAGGCCUAAGUGGCUUCGUUAAAUGCGAUGGAGA'
p160
aF1.0
aa(lp161
S'Shortie 6'
p162
aS'((....)).((....)).((....)).((....))'
p163
aS'GCGAAAGCAGCUAAUGCAGGGAAACCGCCGAAAGG'
p164
aF1.0
aa(lp165
S'Runner'
p166
aS'.....((((.((((.....((((...)))).))))...(((..((((((...)))...)))((((((...)))...))).)))...(((...(((....))).))).)))).....'
p167
aS'AAAAAGUACAGUACAAAAACUAGAAACUAGAGUACAAAGUCAACAGCUCAAAGAGAAACUGCAGCACAAAGUGAAACUGAGACAAAGUCAAAGUCGAAAGACGGACAGUACAAAAA'
p168
aF1.0
aa(lp169
S'Recoil'
p170
aS'.....(((((..((..((..(((..(((..((..((...)).)).))).))).)).)).))))).....................'
p171
aS'AAAAAGUAUCAAGCAAGCAAGUCAAGUCAAGCAAGUCGAACGGCGGACGGACGGCGGCGGAUACAAAAAAAAAAAAAAAAAAAAA'
p172
aF1.0
aa(lp173
S'[CloudBeta] An Arm and a Leg 1.0'
p174
aS'.....(((.(((((....)).)))(((.((....))))).)))....................'
p175
aS'AAAAAGUCGGUGCCGAAAGGACACGUCAGCGAAAGCGACGGACAAAAAAAAAAAAAAAAAAAA'
p176
aF1.0
aa(lp177
S'[CloudBeta] 5 Adjacent Stack Multi-Branch Loop'
p178
aS'(((((((((....))))(((((....)))))(((((....)))))((((....))))))))).'
p179
aS'GUAUCAUAGAAAACUAUCAUAGAAAACUAUGGUAUCGAAAGAUGCGUACGAAAGUACGAUACA'
p180
aF1.0
aa(lp181
S'Triple Y'
p182
aS'.....((((((((((((....))))((((....))))))))((((((((....))))((((....))))))))))))....................'
p183
aS'AAAAUGAAGCUAGAGGCAAAGGAGUAGUUAAAGGAUUCUAUGGCGCUCGGAGACUAGCUACAAAGGUAACGCUCCCCUAAAAAAAAAAAAAAAAAAA'
p184
aF0.9175257731958762
aa(lp185
S'Misfolded Aptamer'
p186
aS'((((......(((((...))).((....)).........)).....))))'
p187
aS'GUGCGAAAAAGGCCCGAAGGGACAGAAAUGAAAAAAAAACCGAAAAGCGC'
p188
aF1.0
aa(lp189
S'Flower power'
p190
aS'.....((((((((...)))).((((((((...))))..((((...))))..((((...)))))))).((((...))))))))....................'
p191
aS'AAAAAGUACGCAUAAAGUGCGGUAGGUACAAAGUACAAGAACAAAGUUCAUAAGCAAAGCUUCUACGCUCCAAAGGAGGUACAAAAAAAAAAAAAAAAAAAA'
p192
aF1.0
aa(lp193
S'Kudzu'
p194
aS'.....(((.(..(.(((((.((((.((...)))).))))((((((...)).))))..(((...)))...))).)..).)))....................'
p195
aS'AAAAAUUCGCGAGGCUUGUGGCCCAGUGAAACGGUGUUCAUUUCGAAAUGGAGCUAAGACAAAGCCAACUAGACGAUAGGGGAAAAAAAAAAAAAAAAAAA'
p196
aF0.9801980198019802
aa(lp197
S'"1,2,3and4bulges"'
p198
aS'.....((((.(((((....))....))).(((....))).)).)).....((((.((((....))...)).(((....))).))..))....................'
p199
aS'AAAAGUUAGAGUGGGGAAAAGAAAACGUGGAUUGAAGGUAGCAGGAAAAAUUAAGCCUUAAAGGGAAUGAGGAAGAAAUUCAUAAAAGAAAAAAAAAAAAAAAAAAAA'
p200
aF0.9444444444444444
aa(lp201
S'medallion'
p202
aS'((((((.((((((....)))))).(((....))).(((....))).((((((....)))))).(((....))).((((((....)))))).(((....))).(((....))).((((((....)))))).(((....))).((((((....)))))).(((....))).(((....))).((((((....)))))).(((....))).((((((....)))))).(((....))).(((....))).((((((....)))))).(((....))).((((((....)))))).(((....))).(((....))).((((((....)))))).))))))'
p203
aS'GGCGUGUUGCGUCGAAAGGUGCACGCCGAAUGGCAUCUAAAGAGAGUUGUGGUAAUUCACAAGCGAAAAAUCGACACUACUAAUGUGGUGAAGCAAAAGUUAGACAAAAGUCACUAUGCAAAGGCAUAGAGGUGAAAGCUAGUGUUCAAAAGAACACAAUCAAAAGGUAGGCAAAGGUCGCUCGGCAAAAGUCGAGAGGGAAAGCCCACUCUUCGAAAGAAGAGAAUCUAAUGGUAGCACAAAUGCGGAGCUAAAAAUGGUUCGUAGUAAUCUGAGUCUGGAAAGCUAGACGUCUAAAAGGAAACGAAAACGUAGUCCUCGAAAGAGGACGUACGCC'
p204
aF1.0
aa(lp205
S'[RNA] Repetitious Sequences 8/10'
p206
aS'((......((......))......(((......((......))......((......))......)))......)).....'
p207
aS'AGGAAAAAGUUAAAAUACAAAAAGCAUGAAAAGAGGAAAGACGAAAAAAGUUAAAACGCGAAAGAGAGAAAAAAUUAAAAA'
p208
aF0.9506172839506173
aa(lp209
S'Documenting repetitious behavior'
p210
aS'.......((.........((.........((.........((.........((.........((.........((.........((.........((.........((.........((.........((.........((.........((.........((.........((.........((.........((.........)).........)).........)).........)).........)).........)).........)).........)).........)).........)).........)).........)).........)).........)).........)).........)).........)).........))......'
p211
aS'AAAAAAAUCAAAAAAAAAUCAAAAAAAAACAAAAAAAAAACCGAAAAAAAAAUAAAAAAAAACCAAAAAAAAGCCAAAAAAAAGGGAAAAAAAAAUGAAAAAAAAAGCAAAAAAAAAGAAAAAAAAAAGUAAAAAAAAAAUGAAAAAAAUGGUAAAAAAAAGGAAAAAAAAAGGAAAAAAAAUCCAAAAAAAAGAUAAAAAAAAAGUAAAAAAAAAGUUAAAAAAAACAAAAAAAAAACCAAAAAAAAGCCUAAAAAAAAAAAAAAAAAAAACAAAAAAAAAUUAAAAAAAAACCGAAAAAAAACAAAAAAAAAGCAAAAAAAAAAGGAAAAAAAAAGGAAAAAAAAAGUAAAAAAAAAGGAAAAAAAAAUAGAAAAAAAAGGAAAAAAAAAGAAAAAAA'
p212
aF0.965
aa(lp213
S'7 multiloop'
p214
aS'(((((((((....)))))(((((....)))))(((((....)))))(((((....)))))(((((....)))))(((((....)))))))))'
p215
aS'GUACGUAUGGAAACAUGCUCUUGUAAUUAAGAGGAUCUAAUGAUCCCUAAAUAAUUUUGGGUAACGAAAGUUGCGUGUCUAAUGACGCGUAC'
p216
aF1.0
aa(lp217
S'Kyurem 7'
p218
aS'.....((((((((((....)))(((....((((.(((.....))).((((((......)))...))))))))))))).))))....................'
p219
aS'AAAAAGGCGGUCGACGAAAGUCCUCAAAAGUACGACCAAAAAGGUAAUCGUCAAAAAAGAUAAAGAUGUACGAGGACACGCCAAAAAAAAAAAAAAAAAAAA'
p220
aF1.0
aa(lp221
S'JF1'
p222
aS'(((((((((((.(((((..(((((....((((((..(((((...(((((..((((((.((((((((((((((....))))))))))))))..(((....))).(((((((((....)))))))))..(((((....))))).)))))).))))).))))).))))))...((((((((.....))).)))))..((((((((((((((((((((((((....)))))))))))))).))))))))))...(((((......)))))((((((((((....))))))))))...((((....))))..)))))..))))).((((.(((.(((....)))))))))).(((((((((....))))).)))).)))).))).))))...'
p223
aS'AUCUCUGCAUAAGUUUCAAGUAUCCUAAGUCUUCAAGCUACGAGGUCUCAAGCAUAUGGUCUUAUUAUUAUCGAAAGAUGAUAAUAAGACAAGUCUAAUGACAGUCUUAUUCGAAAGAAUAAGACAAGUUAGGAAAUUAGCAGUAUGCGGAGACGGUAGCGGAAGACAAAGUCUGCACAAAAAGUGACAGACAAGUCUUAUUUGGAUAUUAUUAUUACUAAUGUAAUAAUAAUAUCACAAGUAAGACAAACAUAGAAAAAACUAUGGUCUUAUUACGAAAGUAAUAAGACAACGUAGAAAACUAUUCGAUACGAGAGACACUACAGUCAGGCGAAAGCCGACGUAGAGUAGGAUAUUAAUGUAUCACUACGUAUGACAGAAGAUGAA'
p224
aF1.0
aa(lp225
S'multilooping fun'
p226
aS'(((.(..((.((....)).((....)).))..).(....).)))'
p227
aS'CCGUUGGGUUUAAAAUUGGUGGAACUGUGUAAGUGAAAACAUGG'
p228
aF0.8636363636363636
aa(lp229
S'Multiloop...'
p230
aS'((((.((((.(((....))).(((....))).(((....))).(((....))).(((....))).(((....))).)))).(((((......)))))(((....)))))))'
p231
aS'GUACAGGACGCUCAAAAGAGAGGUAAAAACCAGUCGAAAGACACGUAAAAGCGAAUCAAAAGAUGGUCAAAAGACAGUUCGGAUAGAAAAAACUAUUCUCAAAAGAGGUAC'
p232
aF1.0
aa(lp233
S'hard Y'
p234
aS'.....((((((.((((((((....))))))).)))((((((((((....)))))))))))))).....'
p235
aS'AAAAGUAUCUAAUCAUACACAAAGGUGUAUGCCUACCUAUGAGUUAAAGAAUUCAUAGGGAUAAAAAA'
p236
aF0.9705882352941176
aa(lp237
S'Mat - Elements & Sections'
p238
aS'.....((((.(...(.((((.(.((((.((.((((.((.(((....))).).)))))).).))))....).)))).)...).))))....................'
p239
aS'AAAAAGUCUACCAAGGCGGGACAGGGGACCAAUGAACUUCUUAAAAAAGUGAGUUAUGACGGUAUGCAAGUUCGGAUGCUUGAGACAAAAAAAAAAAAAAAAAAAA'
p240
aF0.9622641509433962
aa(lp241
S'Chicken feet'
p242
aS'.....((.((.((...)).((....))...)))).((.((.((...)).((....))...)))).....'
p243
aS'AACAUUUGGUAAGGAAGAGCAAAAACGUAAUAGAGGAAAAGUUAAGGGGGUUAAUAUAAAUCGCAAAAA'
p244
aF0.7536231884057971
aa(lp245
S'Bug 18'
p246
aS'.((.((.((.((..((..((.((...))..)).)).))..))..))....)).'
p247
aS'AAAGCGGGUAUGAAGCGUUAACCAAGGGAGUAGGCACGGGGGAAGGAAAACUA'
p248
aF0.8867924528301887
aa(lp249
S'Fractal star x5'
p250
aS'.....((((((((..((((....))))..((((....))))..((((....))))..((((....))))..)))))))).....((((((((..((((....))))..((((....))))..((((....))))..((((....))))..)))))))).....((((((((..((((....))))..((((....))))..((((....))))..((((....))))..)))))))).....((((((((..((((....))))..((((....))))..((((....))))..((((....))))..)))))))).....((((((((..((((....))))..((((....))))..((((....))))..((((....))))..)))))))).....'
p251
aS'AAAAUAUCCGAGAUGGUCCGAAAGGACAAGUAAUAAUUUACGGGGUAGAAAUACCAAGCAUGAAAGUGCGUUCUUGGAUUAAAAGACCUAACGUGUGCGAAAGUACUUGUUCGAAAGGACUAGUAAGAAAUUACAAGUAGGAAAUUAUAAGUUAGGUCAAAAAGUGUGAUCAUGUGCAAAGGCACUGAGAUUAAUAUCUAUUUACGAAAGUAAUAGUGGAAAGCCACGAGAUCAUAUAAAAUUUGCUAAAUUGCGGGAAACUGCUAGCACAAAGGUGUAUCGUCGAAAGAUGUAGGAGGAAAUUUCAUUUUAGCGAUAAAGCUCUUAUGGGGCCCUAAUGGGCAAGUUCAAAGGAACAGGUUUGAAAAGGCAAGCAUUAAUGUGCAAUAUAAGAGAAAAA'
p252
aF1.0
aa(lp253
S'Crop circle 2'
p254
aS'((...((....((.....((.........((..............................))...............)).........)).......))....))....'
p255
aS'AUUAAAAAAAGGUUAAAGUCAAAAAAAAGUCAAAAAAAAAAAAAAAAAAAAAAAAAAAAAAGCAAAAAAAAAAAAAAGGGAAAAAAAAUACAAAAAAGUUGAAUAUAAAA'
p256
aF0.9272727272727272
aa(lp257
S'Branching Loop'
p258
aS'.(((((........)((((....))))..)))).......'
p259
aS'GCGACCUAAAAAAUGUGGUUAAUACCGAUGUCCAAAAAAA'
p260
aF0.95
aa(lp261
S'Bug 38'
p262
aS'.((.((.((..((.(...).)).))..))....)).'
p263
aS'UGAGAAUGGUCGAUUGAAAUUCACCUUUGAAAAUCU'
p264
aF0.8888888888888888
aa(lp265
S'Simple Single Bond'
p266
aS'......(......((((.....))))......)......................'
p267
aS'AAAAAAGGAAAAAGCACAAAAAGUGUGAAAAACAAAAAAAAAAAAAAAAAAAAAA'
p268
aF1.0
aa(lp269
S'Taraxacum officinale'
p270
aS'((((....).))).((((....).))).((((....).))).((((....).))).((((....).))).((((....).))).((((((((((((((((((((((...)))).))))))).(((((..((((((((((..(((((((...))))))).))))))))))((((.((((((...)))))))))))))))...))))))))))).((((....).))).((((....).))).((((....).))).((((....).))).((((....).)))'
p271
aS'UAGAUAAUUACUGAGUGAUAAUUAAAAGGUGCAAAAGAGGCUGACAAAAGUCAUCUGAAUAAAGAAUUCACAUCUAACCACUGGCAAAGUACUGGGUGCUAGGUUCAAAGAGCGCUAGCACGUAUACAAGUCUUGAUACAUCUAUAGCGAAGUUAUAGUGUAUCAAGAUGUAAAAUCUUCAAGGAAGAGUUACGUAUAAAACUAGUACUUUGUCUGCAAAAGACAGUGAGCAAAAGACUCAGGGGGAAAUAUUCGUUAUAAAGAACUUACUCAAAAACAGGC'
p272
aF0.9326241134751773
aa(lp273
S'Headless Bug on Windshield'
p274
aS'.((.((.....(((((...((.(((.........................))).))...))).))...)).)).(((..(((..((.......((....)).......)))))......))).(((((.......(((..((..(((..((.(((...............)))..))..)))..)).)))..))..))).'
p275
aS'ACCGCCAAAAAGGCUCAAGGUGCUCGAAAAAAAAAAAAAAAAAAAAAAAAGAGGACAUGGAGACCAAGGGGGGACGCAAGUCAAGCAAAAAAAGCGAAAGCAAAAAAAGCGACAAAAAAGCGAGGGCCGAAAAAUGUGAAGAAGUGCUGCCACUCAAAAAAAAAAAAAAAGAGACGGAUGCAAGUCGUACUAGGAACCCA'
p276
aF1.0
aa(lp277
S'Pokeball'
p278
aS'...(((((((....((..((..(((..((..((..((..((..((..((...)).))..)).)).))..)).))).)).)))))))))........(((((((....((..((..(((..((..((..((..((..((..((...)).))..)).)).))..)).))).)).)))))))))...'
p279
aS'AAAGUCAGUCAAAAGUGAGCAAGCGAAUCAACACUGGAGCAGACCGAGCAAAGCAGGAAUGACCUUGAGGAACGUGGUAACGACUGACAAAAAAAAGUCUUAUAAAGGAGGUCAAUCCAAGCGACACCGGGAGGAAGCAAUCAAAGAGGUAACCACCAUGGAGCGGGAAGAAUCGUGAGACAAA'
p280
aF1.0
aa(lp281
S'Variation of a crop circle'
p282
aS'....((....((....((....((..((..((...))..))....))......)).......)).........)).............'
p283
aS'AAAUACGAAUGCAAACUUUAAGAUUAAUUGGAAGAUUAUAUAAAAGGAAAAAUGGGAAAAAGGCGAAAAAAAAGUUAAAAAAAAAAAA'
p284
aF0.9090909090909091
aa(lp285
S'Loop next to a Multiloop'
p286
aS'..((((((((.......(.((((((....)))))).(((((((....))))))).).......))))))))..'
p287
aS'AAUGGUAAUCUAAAAAAUCGUCUCCUAAUGGAGACACAUAUUGUAAUUAAUAUGAAAAAAAAUGAUUACCAGA'
p288
aF0.9726027397260274
aa(lp289
S'Snowflake 4'
p290
aS'((((...))))(((((((....))(((((..(((((((....))(((((((((...))))..((((...)))))))))((....)))))))..(((((((....))(((((((((...))))..((((...)))))))))((....)))))))..(((((((....))(((((((((...))))..((((...)))))))))((....)))))))..(((((((....))(((((((((...))))..((((...)))))))))((....)))))))..(((((((....))(((((((((...))))..((((...)))))))))((....)))))))..)))))((....)))))))((((...))))'
p291
aS'GUACAAAGUAUUUUCAUUUAAAGAGUAUUUGUUUCCCCAAAAGGUUAAGGGAUUAUGUGUGAGAACGAAGCUGCACAACUUAACGCGAAAAAGGUCACGCGAAAGUGGAUCUAUCGAAGAUAAAUUGCGAAGUAAGAUUCCUGAAAGGGUGACAUGUAUCGUAAAGGCGUCUCUAUCAAGGAUAAAGUACGAAGUACGAGGCGGAAAGACGAUACUAGCAUCGCUAAUGCCUCUCUUUCAAGGAAAAAGUAUAAAGUACGAGGGGUGAAAACGAUGCAUGUCUCCCUAAUGGUCCUCUGAAACGUAGGAAGCAUUAUAUGCGAGGGUUAGAGGCGAGACUGAAUACGCAAAGGAUGGAACCCGAAACGGG'
p292
aF0.9081081081081082
aa(lp293
S'Mat - Cuboid'
p294
aS'(..((....((..((....((..((....(..((..((....((..((..((....(..((..((..((....((..((..((..((....((..((..((..((..((....((..((..((..((..((....((..((..((..((..((..((....((..((..((..((..((..((....((..((..((..((..((..((......))..))..))..))..))..))))..))..))..))..))..))))..))..))..))..))..))))..))..))..))..))))..))..))..))..))))..))..))..))))..))..))..)))..))..))))..))..)))..))))..))))..)'
p295
aS'UAAGCAAAACCAAGCAAAACCAAUGAAAAGAAGUAACCAAAACCAAGCAAGUAAAAGAAGCAAUUAACCAAAAGCAAGCAAGUAAGCAAAACUAUGCGACCAUUGGACUAAAAGGAGGCGACCAGUCAGCCAAAAGCAGCUAGCCAGCAGGCCAGCCAAAAUCGGUCAGGCUCCGAACCAGCAAAAAGAUAGCAGAAUGCCAUCGUACUAAAAAAGGGUUGAGGGAUUUAGGCGAUUGGAGGCGGUGAUGUAGGAAAGAGGAGGGAAUGAAGGAAAGAGGCGGAGGGAGGGGAGCAGUCAGGGCAUAGGGAGCCGGGGCGAGCAAGCAAGGGGAAAAGAGCGACACACCCUGCGACAGAAGGGUGAAUUGAAAGGGCUGG'
p296
aF0.968421052631579
aa(lp297
S'Misfolded Aptamer 6'
p298
aS'......(((......((((..(....(((........)))....).....)))).......)))...........'
p299
aS'AAAAAAAUCAAAAAUCUACAGGAAAACUCAAAAAAAAGAGAAAGCAAAAGGUAGUAAAAAAGAUAAAAAAAAAAA'
p300
aF1.0
aa(lp301
S'Snowflake 3'
p302
aS'(((((....)).((((((....)))..((((.((((..(((....)))(((.((....))(((...)))((....)).)))(((....)))..)))).((((..(((....)))(((.((....))(((...)))((....)).)))(((....)))..)))).((((..(((....)))(((.((....))(((...)))((....)).)))(((....)))..)))).((((..(((....)))(((.((....))(((...)))((....)).)))(((....)))..)))).((((..(((....)))(((.((....))(((...)))((....)).)))(((....)))..)))).))))..(((....)))))).((....)))))'
p303
aS'GCCCCGAAAGGUUGCUGCAAAGGACGAGUACGGUACAAGGCUAAUGCCAACAGCAAAGGCCCCUAUGAGCCGAAAGGGAACGUCGAAAGACAGGAAAAGUGCGAACCAAAGAGUGUGGGAGAAAGCAUCAAACAGCUUAAUGCAGACGUAGAAAGACAAGCACAUCACAAUUAGAAAUAAGUUAGCGAAAGCAUCAAGGAUCCUAAUGGAAAAGGUAAAGACCAGGUGGAUUACAACUCGAAAGAGGUUGGGAAAGCCCUCAAAGACUAAAAGCAAAACGGCAAAGGCCAAGUAGGGAUCAAAUCGAAAGAUAUCAGCGAAAGCUUCAAAGUGCUGAAAAGAGAUUCCGAAAGGGAAAUUCAGUGCAAGUCGAAAGACGGCUGCGAAAGCGGC'
p304
aF0.8575063613231552
aa(lp305
S'Hard Y and a bit more'
p306
aS'.....(((((((.(((((....)))).)))(((((.((..((((....))))..(((((......)))))..)).))))))))))...................._'
p307
aS'AAGGAGAGUGUUACUCGCGAAAGCGAAGAAUGAUGACCGUGCAGGAAAUUACUCAGCUCAAAAAAGGGCUCAGGGUAUCACACUAGAAAAAAAAAAAAAAAAAAAA'
p308
aF0.9716981132075472
aa(lp309
S'Mat - Lot 2-2 B'
p310
aS'((..(((..((((..((....((..((((....))....))..))))..))....))..))((..((..((..((((..((....((..((((..((....((....))))..))....))..))))..))((..((..((....))((..((((..((....((..((((....))....))..))))..))....))..))))..))..))..))((..((....((..((((..((....((....))))..))....))..))))..))))..))..)..))'
p311
aS'GCGAACCAACACUCACCAAAAGGGAGGCCGACAGGAAAACCGAGGGGAAGGAAAACGACGGCCGAGUGCGAGAUCGCGACUAAAAACUACGCCAACUAAAAGUGAAAACGGAGGCAAAACGGAGUGGAAGCUUAUGCACGUGAAACCGAGGUGCCUAGCAAAAGCGACUCUAAAAAGAAAAAGAAGCGCAAGGAAAACGAAGUGAUAAGAACAAAUCGCUAGCAAAAGAAAGCCAAACAAAAAAUUAAUGUGAAAAGAAAAUGGGUCGUGAGAACAAGGAACGAGC'
p312
aF0.8531468531468531
aa(lp313
S'Shapes and Energy'
p314
aS'......(.((((.((((....(...((((.(....).))))...)))))..((......((((....)))))).)))).).....................'
p315
aS'AAACAGUACUCGUAACGAAAAGUUAUCUGUAAAAGUUUGGAGGCGAGUUUGUGAAAAAAUAAGGAAAUUUGGAGUGAGGGAAAAAAAAAAAAAAAAAAAAA'
p316
aF0.9603960396039604
aa(lp317
S"Spiral of 5's"
p318
aS'(....(((((...(((((...(((((....(((((...(((((...(((((..(((((....(((((...(((((...(((((..(((((...(((((...(((((..(((((...(((((..(((((..(((((..(((((..(((((.(((((.((((((((((.....))))).....))))).....))))).....))))).....))))).....))))).....))))).....))))).....))))).....))))).....))))).....))))).....))))).....))))).....))))).....))))).....))))).....))))).....))))).....))))).....))))).....)))))....).....'
p319
aS'GGAAUCAUACAAAGUAUCUAAGUAUCAAAACAUACAAAGUAUCAAAGUAUCAAGUAUCAAAACAUACAAAGUAUCAAAGUAUCAAGUAUCAAUCAUACAAACAUAGAAGUAUCAAAGAUAGAAGUAUCAAGUAUCAAGUAUCAAGUAUCGGUAUCGGUCUGCAUAGAAAAACUAUGAAAAACAGACAAAAAGAUACAAAAAGAUACAAAAAGAUACAAAAAGAUACAAAAAGAUACAAAAACUAUUAAAAAGAUACAAAAACUAUGAAAAAGUAUGUAAAAGAUACAAAAAGAUACAAAAAGAUACAAAAAGUAUGAAAAAGAUACAAAAAGAUACAAAAAGAUACAAAAAGUAUGAAAAAGAUACAAAAUGAUACAAAAAGUAUGUAAACAAAAA'
p320
aF1.0
aa(lp321
S'Campfire'
p322
aS'....((((..(((((..((((..((((.....))))((((((...))).)))))))((((((.((.((.(((((....)).)))))))(((((.((.((.((....))))))(((((.(((....)).))).)))..)).)))))).))))))))(((.(((.(((.((((....))))))))))((((((((...))).)).))).)))))))'
p323
aS'AAAAGUACAAGUAUCAAGUUAAAGUUCGAAAAGUCCGUGCAUAAGAUGACGCGAACUCGCAUUUUGGGGGGGUCUAAUGAACCCCCAAUUGGCGCCGAGGGUAAAGACGUAAACGGCAGCCAAAGGGACGAACGUAAAGACACAUGCCUAGAUCCGCCAGAAAUUUAUGCCAAAAGGUAGAGCACGCGCGCGCUAUGUGACGACACGGACGUAC'
p324
aF0.8691588785046729
aa(lp325
S'Anemone'
p326
aS'...((((((....))))))(((((....)))))((((((....))))))(((((....)))))((((((....))))))(((((....)))))(((((....)))))((((((....)))))).(((((....)))))((((((....))))))(((((....)))))((((((....))))))(((((....)))))((((((....))))))'
p327
aS'AAAAGUUUAUAAUUAAAUUGAUUCGAUAGGAUCGUUGUCUAAUGACGACGCGGUAAAGAUUGCGGGUUAGAAAUGAUACCUAUAGAAAUAUAGACUGUUAAUACAGUGCUAGCGAAAGAAAGAAUGAUAGAAAUGUCGGGCUGCUAAUGCAGCCGCAGGAAAGUCUUUAUAGUAAAAGUAUUGUGUGUGUAAUUGCACCGUGGAAAAGUCCUCA'
p328
aF0.9906542056074766
aa(lp329
S'Fractal 3'
p330
aS'.....((((.(((.((....))((....)).))).(((.((....))((....)).))).(((.((....))((....)).))).(((.((....))((....)).))).)))).....'
p331
aS'AAAAAGACGACUCAGUGAAAGCAUGAAAGCGGGGAGUAGUUUAAAGACAGAACAGAUACCGGGAGUGAAACGCUAAAGGACCUCAAGUGUUUAAUGAUUGAAACUAACCAUAGCAGGUA'
p332
aF0.8823529411764706
aa(lp333
S'Kyurem 5'
p334
aS'.....((((((((((....)))(((....((((((((...(((.....)))))))(((......))).))))))))))..))))....................'
p335
aS'AAAAGUACUUGAGUGAAAGCUUUUCCAAAGAGAUCCGUAAGGCAAAAGGUUGGGGGUGAAAAAGCGCAACUUGUGUUAAUGGUAAAAAAAAAAAAAAAAAAAAA'
p336
aF0.9423076923076923
aa(lp337
S'Snowflake Necklace ( or v2.0 )'
p338
aS'(((((((((((((((.(((((.((.....)).((.....)).((.....)).((.....)).((.....)).))))).(((.....))).(((((.((.....)).((.....)).((.....)).((.....)).((.....)).))))).(((.....))).(((((.((.....)).((.....)).((.....)).((.....)).((.....)).))))).(((.....))).(((((.((.....)).((.....)).((.....)).((.....)).((.....)).))))).(((.....))).(((((.((.....)).((.....)).((.....)).((.....)).((.....)).))))).)))))))))))))))'
p339
aS'AACUUAUAAAUAUUUGGCAUCGUCUAAAUGAACCAAAAAGGAGUAUAAAAAGUGUAAAUGUACUAAAAAGGAGGGGCGGUCGAAAAGACAGUAGCUCGAAAAACAGCCAAAAAUGAUCGAAAAGGUCUAAAAAGGUUCGAAAAGGCGUUACAGUUAAAAAAACAAUUUCGAUGAAAAAAAACGAAAAGGACCAAAAAGGUGCAAAAAGUUUUGAAAAGGAGAAAUAGCCAAAAAGGCAGCAACGCCAAAAAGCACAUAAAUUGAUUUAAAUGGGCCAAAAAGGUCCAAAAAGGUGUUGCAGUUAAAAAGACUUGUGCUCGGAAAAUAGGGAAAAGCUACUAAAAGGGGCCAAAAAGCGUCAAAAAAGAGUGCAUAAAUAUUUAUAAGUU'
p340
aF0.8920308483290489
aa(lp341
S'Methaqualone C16H14N2O Structural Representation'
p342
aS'.......((((.((((.(((.(((....))).(((.(((....))).(((.(((....))).(((.(((....))).(((......))).))).))).))).))).(....).)))).((((...(((.(((...((....))........))).(((.(((....)))(((....)))(((....)))))).)))...((((.(....).(((.(((.(((.(((.(((...(((....))).))).(((....))).))).(((....))).))).(((....))).))).((((((....)))(((....))).(((....)))))).))).))))...)))).)))).......'
p343
aS'AAAAAAAAUAUGAUAGUGUCGGUCGAAAGACUCACAGUCGAAAGAUAUGCAGUCGAAAGACGGGCAGUCGAAAGACAUUCAAAAAAGAGGGUCCGUGGGAGGGGCAAAAAACAGUAUGAUACAAAGGCUGCCAAAUUGAAAAGAAAAUAUGGGCUGCGAAUCAAAGGAUUUCGAAAGGAUUCGAAAGAACGCAGUCAAAGUAUGGAAAACACUUAUCUGCUCAGUAAGUAAACAGAAAAGUUUAUGCUGGAGAAAUCCUUAUGGCAGAAAUGCGGACAGACUAAUGAAAAGGAGUAGCCGAAUGACAAGAAAACUGACUUGAAAGUUUACGGAGAAUACAAAGUACAGUAGAAAAAAA'
p344
aF0.8547486033519553
aa(lp345
S"Cat's Toy 2"
p346
aS'....((((((((....((..(...................)..(((...((....))...((....))........))).......))))))))))....'
p347
aS'AAAACAGAAGUUAAAAGGAAGAAAAAAAAAAAAAAAAAUGCGGCGGAAUGAAAAGGUUAGAUUAAUAUAAAAACAGACAAGAAAAGUUAGCUUUUGGAAA'
p348
aF0.95
aa(lp349
S'Zigzag Semicircle'
p350
aS'....(((((((((.((....))).)).).)))))....'
p351
aS'AACACAGUAGUGAGCAUGAUUAGGCAAUAUGGUGUAAA'
p352
aF0.9473684210526315
aa(lp353
S'Short String 4'
p354
aS'......((.((..((..(...(.((.((....))))..)...(.((..((....))..))..)...).))..)))).....................'
p355
aS'AAAAAGGUUUGAAUAAAGUAUAUUCAUAUAUUUCGACUCUAGUGUGAAGGGAACUUAGCGAAAAAUCGAAGACGACAAAAAAAAAAAAAAAAAAAAA'
p356
aF0.9587628865979382
aa(lp357
S'Gladius'
p358
aS'((....))..(...(...(..(.(..(...(((.(((...((((....)))).((((((.((((((.((((((.((((((.((((((((((.((((((.(((((.((((.((((..((((...)))).))).)))))).))))).)))))).)))))))).)))))).)))))).)))))).))))))).)))...(((.(((((.(..((((.(..((((.(..((((.(..(((((((.((((((.(((((.((((((.(((.((((((....))))))..)))).)))).))))).)))))).)))))))).)..)))).)..)))).)..)))).)..))))).((((....))))...))).)))...)..).)..)...)...)..((....))'
p359
aS'ACAAAGACAAGAAUAAAAGGAAUUUUAGAAAUCUAAUAAUCUACGAAAGUAGUGUCUUCACCAUAGAGCAUAGAGCAUAGAGCAUAUUAGCAGUCUGCAGUAGCACUACAGCGCAUGCUCAAAGAGCUGCGACGUGGGACUACGACAGACGACUAGUAUGACCUAUGACCUAUGACCUAUGUCGAAGACGCCCUAAUCGAGUAUCGUAAGCUCAUAAGCGCUCAAGCUCGCAAGCAUGUCAGCGUGGAGCUACAGCAUAGAGUCACAUAUCGAAAGAUGUGGGGACCAUAUGAUGUAGACCUAUGACGACAUGCGGAAGAGCGGAUGUGCGAAGGAGCGAAAGAUACGCUCAAAAGUGAGGAAUCGGAAAAAAUAGAUUUACAAGCUAGCAAGGAAAUGG'
p360
aF0.8725
aa(lp361
S'Thunderbolt'
p362
aS'((..(((((........(.((..((.(.....(....).((((((((.........((......((((.....))))......))...((..((.......(..(......)..)..((..((.....((....)).((((.....(((.....(..((.(...).))..).....))).((((...(.......(..(.((...)).)..).......)...))))........)))).....((((((...)))))).))..))...........))..)).........(..((((....))((((((.....(........).....))))))..))..)...))))))))........).))..)).).....(.......).)))))..)).'
p363
aS'ACAUGUAGAUAAAGAGACGCCAAGAGGAAAAAAAAAAUUGUGUCUUCGAUCCCUGACCAAAAAGUUACUAAAUGUAAAAAAAAGGAAUGAUUUUAAAAAAAGAAGAAAAAACAAUAACCAACUAAAAAGUGAAAGCGCUGCAAAAGGUGAAAAGGAAGCGCGAAGAGCAACAAAAACACAUAUCACCGAAAAAAAGAAGACCAAAGGAAGGCGAAAAAACCAAGAUAGAACAAAAGUAGGAAAAUAUUACAAAGUGAUGAGGGGGGAAAAAAAAAAAAGCAGUUAAAAAAAAGGAGUCGGAAAUGCGCUAAAAAAUGGAAAACAACUAAAAUUGGACAUGCAACAAAGAGGAUACUCAAAAAACAUCAAGGAGUGAAGUAAAAAAAGUUUUACUAGUA'
p364
aF0.9246231155778895
aa(lp365
S'Mutated chicken feet'
p366
aS'.......((.((.((....)).((...))...)))).((.((.((....)).((...))...)))).((.((.((....)).((...))...)))).......'
p367
aS'AAAAAAUAGGGCCGUAAAGGCAAUAAAGCAAAGCUCGAAGGCUUCUUAUCUACGAAUCGUAUGUUUAAGAGCAGAAAAGGCGGUGAAGCAAACCAGAAAAAAA'
p368
aF0.7669902912621359
aa(lp369
S'Chicken Tracks'
p370
aS'........(((((((((((....))))..((((....))))..((((....)))))))))))..(((((((...))))..((((...))))..((((...))))))).........'
p371
aS'AAAAAAAGGUCUAACGUACUAAUGUACAAGUGCGAAAGCACAAGUUGGAAACAAUGUUAGACAAGCCGCGCUAGGCGCCAGUACAAGGUACACGUUCGACGAACGGCAAAUAAAAA'
p372
aF1.0
aa(lp373
S'Looking Back Again'
p374
aS'(((..(((((((.....((((((...)))))).))))..((((((..(((...)))))).(((((...((((....))))....)))))..)))..)))..(((((((.....(((((....)))))......)))((((((((((...)))))(((((...)))))((((((((..(..(..(..(..(..((((....))))..).)..))..).))(((....)))..))))))...))))))))).(((((.((((......(((((((........((((.....))))))))...))).))))((((......((((((((....))))))..(((((...)).(((((...)))))..)))))....)))))))))...)))'
p375
aS'GUCAGGUCGUGCAAAAUCAUAUCAAAGAUAUGUGGACAAUUCGGCAAGGCAAAGUCACCAGUAUGAAAGUACGAAAGUACAAAGCAUAUAAGAGAAGGCAACAGAAGCUAAAAGUAUGUAAUCAUACAAAAAUCCAAUAUGGGGUCAAAGAUUCGUAUCAAAGAUACGGCUACCGGAGAAUAAAAUUAAGGUGUAUGAAAGUAUUACGAUAGAAACAUGAGCUAAUGUUUAGUAGCCAAAGAUUACCUGAUCAUCAUUAAAAAAAGCCACAUAAAAAAAAAUUAGGGAAAUGGAUAUGAAACGCAUUAAGGACAAAAAAAUGUGUUCGAAAGAAUACAAGGCUCAAAGAUUAGAGAAGCUUUAUAGCCGCGAAACUUCGAUGAAAGGAC'
p376
aF0.8868894601542416
aa(lp377
S'Multilooping 6'
p378
aS'..(((((((((((((....)))))(((((....))))))))((((((((....)))))(((((....)))))))))))))..'
p379
aS'AGCUAUCCGGGUGGCGAAAGCCGCACAUCAAAGGAUGUCCGGGCGUAACAAAGGUUACUUCUGUAAUUAGAAGCCGAUAGAA'
p380
aF1.0
aa(lp381
S'Cesspool'
p382
aS'((..(..((....))..(((.(..(.(((...)))..)..)..)))..(..(....)..).(..(....)..).....((....))..)..))..((..(..((....))..(((.(..(.(((...)))..)..)..)))..(..(....)..).(..(....)..).....((....))..)..))..((..(..((....))..(((.(..(.(((...)))..)..)..)))..(..(....)..).(..(....)..).....((....))..)..))..((..(..((....))..(((.(..(.(((...)))..)..)..)))..(..(....)..).(..(....)..).....((....))..)..))'
p383
aS'GCAAUAAGCGAACGUUAGCGACAUAAGCUUAUAGCAAUUUGGACCUGAGAAUAAAGGAGUAGAAAAAAAUGACAAAGAUCGAAAGGCAAAGGCAAGAAGGAACGGAAACGAAUUCUGUGGAGUGAAGUAGAAGUUCAAGAAAGGAAAAAAAUGAAAGAAGAAAACUUCGAACACCGAAAGGACUAUAAAAGCAAAAAGGGAAAUCGAAUUGUAUAUUCAGAAGGGAUUUAAAAAAUAAGAAGAAACCGCCGCGACAAAAGUAGAAAGAGUGAAAGUAAUGGGCAAUUAGAAAUGAAAGCGAAGUCUUUAUAUACGAACUUAGAUUAUAGAUAGAAAGAAAACAAUAGGAAAAAGUAAUAAAGAGGGAAAUCAAUGGGG'
p384
aF0.7248677248677249
aa(lp385
S'Hoglafractal'
p386
aS'(.(((..(((((....(((((......))))))))))((((...((((.....))))))))(((..(((....)))))).(((...((((...((((......))))))))(((..(((.....))))))((.((....)))).((((....(((..(((......))))))((.((.....))))(((....))).(((((.....((.((......))))(((.....)))((....)).((((((......(((......)))((.....))...(((((((...))))))).......))))))......))))).....))))....)))...)))..)...(.((.((((....((....))((....))((((((...)))))).)))))).)'
p387
aS'UACUUAAGGUUUAAAAGUGUCUAAAAUGAUACUAGUUGUAGAAAGGUCAAAAGGAUUCUACUUAAAUUCGAAAGAAUAAACAUAAAAACCAAAGUAUAAAAAAAUACCACAGUCAAGACAAAAGGUCGACGUAGCAAAGGCACAGUACGAAAGUGAACUCAAAAAAGAGCACGCAGCAAAAGGCGCGGAGAAAGUUAAUUGCAAAAAGGUGCUAAAAUGCCCGACAAAAAGUCCCAAAGGGAGUCUGUAAAAAAGCAUAAAAUUGCCCGAAAAGGAAGUCCUGGCGAAGCCAGGGAAAAAAAAUAGACGAAAAAGCGACAAAAAGUGCAAAGAUGAAAAAGGUAAAAUAGCAUCCAAAAAGCUAAUGCAGGAAACUGAUGUCAAAGAUAUUGUGGAGCGA'
p388
aF0.96
aa(lp389
S'Bullseye'
p390
aS'...(((((((...))))..((((...))))..((((...)))))))........(((((((...))))..((((...))))..((((...)))))))........(((((((...))))..((((...))))..((((...)))))))........(((((((...))))..((((...))))..((((...)))))))...'
p391
aS'AAUGAGCGCGGAAUGGGAUUGUCAAGGGCAUGCGUUAAAAGAGUUUUCAAAAAAGUUCGGCAACGCACAAGCGCAAUGCCAAAUCUGAAAUAGAGACGAAAAAAAUAACGGGAAGCGGGACCAUGGAAGGACUAGGAUAAGAUUCUUGGAAAAAAACCCCCGCUAUGAGGAGAGUCGAAGGCUAAUCUAGAAUCGAGGGGAA'
p392
aF0.8613861386138614
aa(lp393
S'Shooting Star'
p394
aS'(((((((((((((((((...(.(..((.(((.(((.((....).))).)))).).)..))..))))))).(((((..(.(..((.(((.(((((.(((.((((.((....).)))).))))).))).)))).).)..))..)((....))..))))(((((((((...))))).(((((...)))))(.(....).).)))).)))).((((.((((...(((((((...))))))).(((((...)))))))))(((((((...))))))).(((((...)))))))))((((..((....))(..((..(..(.(.(((.((((.((....).)))).)))).)..)..).))..))))).)))))).'
p395
aS'GUCUUCCGUGCAGAUUCUAAAAGAAGCUCUCACCUUGCGAAAGACAGAGGAGUGACGGCUAUGAAUUUGAGUACGAUCCGAUGCGCUCAGCAGAAUUCAGUCUAGUGAAAAACAGGACGAAUAUUGACGAGGGACUGCGAGCAAAAAAUUAACUACAAAGUUAUAAAAUACAGUGUAUAAAAUAUACGCUAAAAAACAUUUAAAACGACUGGAACGGAAACCUUUGCUCUGCAGGGAGGCAUCAAGGAUCCGCAUGGCUUGCAAAGCAAGUCACUAUAAAAGAAAGCUAGGGAUAACCAAAGGGCUGGCAGUCAUGGAAUUAGCUCAUAGAAAGGAGAGACGAUGCAACAAAAGGAAGAUUCAGAAGACA'
p396
aF0.8945945945945946
aa(lp397
S'Teslagon'
p398
aS'......((.......((.((.......((.((...............)).........((...............)).)).......)).((.......((...............)).......)).((.......((.((...............)).........((...............)).)).......)).((.......((...............)).......)).((.......((.((...............)).........((...............)).)).......)).((.......((...........((...............)).)).......)).)).......))......'
p399
aS'AAAAAAGCAAAAAAGGUAACAAAAAAAUUGCAGAAAAAAAAAAAAAAGGAGAAAAGAAGCAUCGAAAAAAAAACAGCAGGAAAAAAACAGACAAAAAAGGGAAAAAAAAAAAAAAAUCAAAAAAAGCAAGAAAAAAACGAGCAAAAAAAAAAAAAAAGCAGAAAAAAAAAGUAAAAAAAAAAAAAUGGAGAAAAAAACCUGGAAAAAAAUCAAAAAAAAAAAAAAGAGGAAAAAGGCUGGAAAAAAAGAACAUAAAAAAAAAAAAAUGAGGAAAAAAAGUUUAAAAAAAAAACAUACCGCAAAGAAAUUAGUAAAAAAGCGGAAAAAUAAAAGCGUACGAAUUUAGAGAGGAUGAAAAAGAGGCAUAAAAAAAGGAAAAAA'
p400
aF0.8713910761154856
aa.