(lp0
(lp1
S'Simple Hairpin'
p2
aS'(((((......)))))'
p3
aS'GAUACAAAAAAGUAUC'
p4
aF1.0
aa(lp5
S'Arabidopsis Thaliana 6 RNA - Difficulty Level 0'
p6
aS'(((((((....(((...........)))((((((((..(((((((((((((((((((...(((((......))))).)))))).)))))))))))))..))))))))..)))))))'
p7
aS'UAUAGACGCACGACAAAAAAAAAAAGUCGAUAGAUCACUAUAUAUAUAUACGAGAGCAAAGAUACAAAAAAGUAUCAGCUCUCAGUAUAUAUAUAUACAGAUCUAUCAAGUCUAUA'
p8
aF1.0
aa(lp9
S'Prion Pseudoknot - Difficulty Level 0'
p10
aS'((((((.((((....))))))).)))..........'
p11
aS'GACGACAGAUCAAAAGAUCGUCAGUCAAAAAAAAAA'
p12
aF1.0
aa(lp13
S'Human Integrated Adenovirus - Difficulty Level 0'
p14
aS'((((((((((((((.((((((...........((((((((((((.....((((((((....(((((((((((((........))))))))))....))))))))....))))))....)))))...((((((.......))))))))))............)))))).))))....))))))...))))...'
p15
aS'GGUGGAUAGAGAGCUGAUAGCUAAAAAAAAAAGAUCGAUAGGCCGAAGGCGCGAGUCAAAAGCAGAGAGAGAGCAAAAAAAGGCUCUCUCUCAAAAUGCGGCUCUAAAGCGGGCAAAACUAUCGGGGCUAGCAAAAAAGGCUAGCGAUCGAAAAAAAAAAUGCUAUCUGCUCAAAAUCUAUCAAACAUCAAA'
p16
aF1.0
aa(lp17
S'The Gammaretrovirus Signal - Difficulty Level 0'
p18
aS'..(.(..((((((....))))))..).)......((((..(((.(((((((((....)))))....)))))))))))..((((((((....))))))))..'
p19
aS'AAGUGUAUAUAGCUAAUGCUAUACUCUCAAAAAGGAUCAAGACAGGUCCGAGCAAAAGCUCGCAAAGACCGUCGAUCAUGAUAGAUGGAAACAUCUAUCUA'
p20
aF1.0
aa(lp21
S'Saccharomyces Cerevisiae - Difficulty Level 0'
p22
aS'(((((((((((........)))).((...............))....(((((.......))))))))))))....(((((((..((((........))))(((.............)))....(((((.......))))))))))))....(((((((..((((........))))((((((.......))))))....(((((.......))))))))))))....(((((((..((((........))))((((((.......))))))....(((((.......))))))))))))....(((((((..((((........))))((((((.......))))))....(((((.......))))))))))))....'
p23
aS'GAUAGAGGGGCUAAAAAAUGCCUAGCAAAAAAAAAAAAAAAGCACCCCUUAUAAAAAAAAUAGGCUCUAUCAAAGCAUAUACAACCUCGAAAAAAAGAGGGAUGAAAAAAAAAAAAAUCACGUGUUACAAAAAAAGUAGCGUGUAUGAAAAGGUAGGAAAGCCCAAAAAAAAGGGCAAUGGCUAAAAAUGCCAUUACGUGAGAUUAAAAAUAUUUCUCCUACCAAAAGCGAGACAAGAUUUAAAAAAUAAUCGAUAGCUAAAAAUGCUAUCACGUGAUACAAAAAAGGUAUCGUCUUGCAAAAAAGAUUCAAAUCCAAAAAAAAGGAUGUUAGUAAAAAAGGCUAGCACGUGAAACUAAAAAUGUUUCGGGUCUUAAAA'
p24
aF1.0
aa(lp25
S'Fractal 2'
p26
aS'.....((((((((...((((((((((..((((..........))))..((((..........))))..((((..........))))..))))))))))...((((((((((..((((..........))))..((((..........))))..((((..........))))..))))))))))...((((((((((..((((..........))))..((((..........))))..((((..........))))..))))))))))...)))))))).....'
p27
aS'AAAAAGAUAGAUCAAAGAUAGAUACCAAGAUCAAAAAAAAAAGAUCAAGAUCAAAAAAAAAAGAUCAAGAGCAAAAAAAAAAGCUCAAGGUAUCUAUCAAAGAUAGAUAGCAAGAGCAAAAAAAAAAGUUCAAGAUGAAAAAAAAAACAUCAAGAUCAAAAAAAAAAGAUCAAGCUAUCUAUUAAAGAUUGAUAGCAAGAGCAAAAAAAAAAGUUCAAGAUGAAAAAAAAAAUAUCAAGAUCAAAAAAAAAAGAUCAAGCUAUCAAUCAAAGAUCUAUCAAAAA'
p28
aF1.0
aa(lp29
S'G-C Placement'
p30
aS'((((...)))).'
p31
aS'GAUCAAAGAUCG'
p32
aF1.0
aa(lp33
S'The Sun'
p34
aS'(((.(((((((...))))..))))))...(((.(((((((...))))..))))))...(((.(((((((...))))..))))))...(((.(((((((...))))..))))))...(((.(((((((...))))..))))))...(((.(((((((...))))..))))))...(((.(((((((...))))..))))))...(((.(((((((...))))..))))))...(((.(((((((...))))..))))))'
p35
aS'GACCGUAGACCGAAGGUCCAUAUGUGAAGUUAAGCUGACUGAAGUCAUAGGCGUCAACGAAACAAAGGCGAAUACCAAUUGUUAGAGGUCUUAUGAGCGAAGCUUAAACCGGCAAAGAUAGAGCGACUAUGUUGAAUACGCCGAUAACAGAUGAGUUAUAUUCAAAUCGUUUAAAUCAGGUUAGGUAUUCUAAAAUCGUCGAUGGCAGUUGGUGGAACACCAAAGCCUUCAAGUCACUGUGGCAACGUCGAAUAGGAU'
p36
aF0.7674418604651163
aa(lp37
S'Frog Foot'
p38
aS'..........((((....))))((((....))))((((...))))'
p39
aS'AAAAAAAAAAUAUCAAACGAUGGAUCUAAUGAUCGUCCUAUGGAC'
p40
aF1.0
aa(lp41
S'InfoRNA test 16'
p42
aS'((((((.((((((((....))))).)).).))))))'
p43
aS'GAUAGCGGGAGAGACAAAAGUCUCAUCACAGCUAUC'
p44
aF1.0
aa(lp45
S'Mat - Martian 2'
p46
aS'((((....))))...(((((((..(((((((.......))))))))))))))...((((((((......(((((((.(((((((.......))))))))))))))...((((((((((((((.......))))))).)))))))......))))))))...((((((((((((((.......)))))))..)))))))...((((....))))'
p47
aS'GAUCAAAAGAUCAAAGAUAGACAAGAUAGACAAAAAAAGUCUAUCGUCUAUCAAAGAUAGAUCAAAAAAGAUAGACAGAUAGACAAAAAAAGUCUAUCGUCUAUCAAAGAUAGACGAGAGACAAAAAAAGUCUCUCAGUCUAUCAAAAAAGAUCUAUCAAAGAUAGAUGAGAGACAAAAAAAGUCUCUCCAAUCUAUCAAAGAUCAAAAGAUC'
p48
aF1.0
aa(lp49
S'square'
p50
aS'((((((((((((((((((((((((((...))))))....)))))))....))))))....)))))))'
p51
aS'GAUAGACCGAGGCCGAGGACCGAGGCAAAGCCUCGAAAAGUCCUCGAAAAGCCUCGAAAAGUCUAUC'
p52
aF1.0
aa(lp53
S'Six legd turtle 2'
p54
aS'.....((...((....))...((....))...((....))...((....))...((....))...((....))...))....................'
p55
aS'AAAAAGCAAAGCAAAAGCAAAGCAAAAGCAAAGCAAAAGCAAAGCAAAAGCAAAGCAAAAGCAAAGCAAAAGCAAAGCAAAAAAAAAAAAAAAAAAAA'
p56
aF1.0
aa(lp57
S'Small and Easy 6'
p58
aS'(((((.....))..((.........)))))'
p59
aS'CACGAUCAAUGAAAGGGAAAAAAAAUCAAG'
p60
aF0.8666666666666667
aa(lp61
S'Fractile'
p62
aS'............((....))...((...((....))..((...((....))...))..((....))...))..((....))........................'
p63
aS'AAAAAAAAAAAAGCAAAAGCAAACCAAACCAAAAGGAAGCAAAGCAAAAGCAAAGCAAGCAAAAGCAAAGGAACCAAAAGGGAAAAAAAAAAAAAAAAAAAAAAA'
p64
aF1.0
aa(lp65
S'Six legd Turtle'
p66
aS'.....((....((....))....((....))....((....))....((....))....((....))....((....))....))....................'
p67
aS'AAAAAGCAAAAGCAAAAGCAAAAGCAAAAGCAAAAGCAAAAGCAAAAGCAAAAGCAAAAGCAAAAGCAAAAGCAAAAGCAAAAGCAAAAAAAAAAAAAAAAAAAA'
p68
aF1.0
aa(lp69
S'snoRNA SNORD64'
p70
aS'((((((.....(((....(((...(((((.............)))))....)))..)))..))))))'
p71
aS'GAUAGCAAAAAGACAAAAGACAAAGAUACAAAAAAAAAAAAAGUAUCAAAAGUCAAGUCAAGCUAUC'
p72
aF1.0
aa(lp73
S'Chalk Outline'
p74
aS'.....((((.(((((....)).))).(((.(((....)))))).((((((....)).)))).(((((....))).)))))).......................'
p75
aS'AAAAAGAUCAGACGCAAAAGCAGUCAGACAGACAAAAGUCGUCAGAUAGCAAAAGCAUAUCAGAGACAAAAGUCAUCGAUCAAAAAAAAAAAAAAAAAAAAAAA'
p76
aF1.0
aa(lp77
S'InfoRNA bulge test 9'
p78
aS'(((((((.(.(.(.(((((((....)))))))))))))))))'
p79
aS'GAUAGACAGAGAGAGAUAGACAAAAGUCUAUCCCCGUCUAUC'
p80
aF1.0
aa(lp81
S'Tilted Russian Cross'
p82
aS'.....((((((((....))))((((.((((....))))(((((....))))).((((....))))))))((((....))))))))....................'
p83
aS'AAAAGUGCAUAUCGAAAGAUAGGAUAUGGCAAAGGCCAUCUGUGAAAGCAGAACAAGAAAGCUUGGUCCGGCUAAAGGGUCUGUAAAAAAAAAAAAAAAAAAAAA'
p84
aF1.0
aa(lp85
S'This is ACTUALLY Small And Easy 6'
p86
aS'................................................................................................................................................................................................................................................................................................................................................................................................................'
p87
aS'AAAAAAAAAAAAAAAAAAAAAAAAAAAAAAAAAAAAAAAAAAAAAAAAAAAAAAAAAAAAAAAAAAAAAAAAAAAAAAAAAAAAAAAAAAAAAAAAAAAAAAAAAAAAAAAAAAAAAAAAAAAAAAAAAAAAAAAAAAAAAAAAAAAAAAAAAAAAAAAAAAAAAAAAAAAAAAAAAAAAAAAAAAAAAAAAAAAAAAAAAAAAAAAAAAAAAAAAAAAAAAAAAAAAAAAAAAAAAAAAAAAAAAAAAAAAAAAAAAAAAAAAAAAAAAAAAAAAAAAAAAAAAAAAAAAAAAAAAAAAAAAAAAAAAAAAAAAAAAAAAAAAAAAAAAAAAAAAAAAAAAAAAAAAAAAAAAAAAAAAAAAAAAAAAAAAAAAAAAAAAAAAAAAAAAAAAAAAAAAA'
p88
aF1.0
aa(lp89
S'Shortie 4'
p90
aS'((....)).((....))'
p91
aS'GGAAAACCACCUAAUGG'
p92
aF1.0
aa(lp93
S'Shape Test'
p94
aS'.....(.((((..(((((........)))))..(((.(((.(((((.....))))).((((....)))).))))))..)))).)....................'
p95
aS'AAAAAGAGAUCUAGAUACAAAAAAAAGUAUCAGGACAGACAAAUACUAAAUGUAUUGGAUCAAAAGAUCAGUCGUCAUGAUCGCAAAAAAAAAAAAAAAAAAAA'
p96
aF1.0
aa(lp97
S'The Minitsry'
p98
aS'(((.....(((.....(((.....(((.....(((........))).))).))).))).)))'
p99
aS'UUGAGAAAGUUAAGACAACGAAAUCUGGAAACGUUUAAAAAAUUGGCUGUUAUAGAGCGCAG'
p100
aF0.9032258064516129
aa(lp101
S'stickshift'
p102
aS'..((((((((.....)).))))))..'
p103
aS'AAGAUAGCCCAAAAAGGAGCUAUCAA'
p104
aF1.0
aa(lp105
S'U'
p106
aS'.....(((((.(.(.((.(.(((((((((....))))))))))))))))))).....'
p107
aS'AAAAAGAUACAGAGAGCAGAGAUAGAUACAAAAGUAUCUAUCCGCCCGUAUCAAAAA'
p108
aF1.0
aa(lp109
S'Still Life (Sunflower In A Vase)'
p110
aS'...((((..(((((.....)))))..(((((...)))))..(((((.....)))))..(((((...)))))..(((((.....)))))..(((((.....))))).((((((((((((((((((((((((((((......))))).(((((.............((((.........................................)))).............)))))(((((....))))).)))))))))))))))))))))))..(((((.....)))))..(((((.....)))))..(((((.....)))))..(((((.....)))))..(((((....)))))..(((((.....))))).))))...'
p111
aS'AAAGAUCAAGAUACAAAAAGUAUCAAGAUAUAAAGUGUCAAGAUACAAAAAGUAUCAAGCUCCAAAGGAGCAAGAUGCAAAAAGCAUCAAGAUACAAAAAGUAUCAGAUAGAUAGAUAGAUAGAUAGACGAUACAAAAAAGUAUCAGAUAGAAAAAAAAAAAAAGGUCAAAAAAAAAAAAAAAAAAAAAAAAAAAAAAAAAAAAAAAAAGAUCAAAAAAAAAAAAACUAUCGAGACAAAAGUCUCAGUCUAUCUAUCUAUCUAUCUAUCAAGAUACAAAAAGUAUCAAGAUACAAAAAGUAUCAAGAUACAAAAAGUAUCAAGAUACAAAAAGUAUCAAGAUACAAAAGUAUCAAGAUUCAAAAAGAAUCAGAUCAAA'
p112
aF1.0
aa(lp113
S'Quasispecies 2-2 Loop Challenge'
p114
aS'.....((((((((..((((....))))..)))).((((..(...)..)))).((((..(..(((.....)))..)..))))))))....................'
p115
aS'AAAAACUUGGAUCAGUAUCAAAGGAUAGGGAUCAGAGCAACAAGGGGGCUCAAGACUACAGUGCUAAAUGUAAGGGUGUCUCAAGAAAAAAAAAAAAAAAAAAAA'
p116
aF1.0
aa(lp117
S'Corner bulge training'
p118
aS'.(((((((((((...)))))....)))))).'
p119
aS'AGAUAGCGAUACAAAGUAUCAAAAGCUAUCA'
p120
aF1.0
aa(lp121
S'Spiral'
p122
aS'.....((((.((((((.(((.(((((.((((.((((.((.((.((.((.((.((.....)))))))))))))))))))))))))))))))))))))).....'
p123
aS'AAAAAGAUCAGAUAGCAGACAGAUACAGAUCAGAUCAGCAGCAGCAGCAGCAGCAAAAAGCGCGCGCGCGCGAUCGAUCGUAUCGUCGCUAUCGAUCAAAAA'
p124
aF1.0
aa(lp125
S'InfoRNA bulge test'
p126
aS'.............................((((......((((....((((...((((..((((.((((.....)).)).)).))..)).))...)).)).....)).))......)).)).'
p127
aS'AAAAAAAAAAAAAAAAAAAAAAAAAAAAAGAGGAAAAAAGAGCAAAAGAGCAAAGAGCGCUAGCGGAGCAAAAGGCAUCAGCAUAAGGCAUCAAAGCAUCAAAAAGCAUCAAAAAGCCAUCA'
p128
aF1.0
aa(lp129
S'Worm 1'
p130
aS'.......(.(.(.(.(.((.((.(....).)).)).).).).).)'
p131
aS'AAAAAAAUACAUAGAGUUCGUGGAAAAAUAUAAUAUUGUGGUUGA'
p132
aF0.9111111111111111
aa(lp133
S'just down to 1 bulge'
p134
aS'.....((((.(((((....))))).(((....))).)).))....((((.(((....))).(((....))).))))....................'
p135
aS'AAAAAGAGCAGAUACAAAAGUAUCAGACAAAAGUCAGCAUCAAAAGAUCAGACAAAAGUCAGACAAAAGUCAGAUCAAAAAAAAAAAAAAAAAAAA'
p136
aF1.0
aa(lp137
S'Iron Cross'
p138
aS'.(((.(((...(((.(((...))).(((....))).)))...(((.(((....))).(((...))).)))...(((.(((....))).(((...))).)))...))).(((...))).)))..'
p139
aS'UGAUAUAGGCAAACAGGCAAGGUUACAGAAAGUUGGGGUAAACAUGGGUGAAAGCAAGUAGAAGCCAGUCAAGGGUGCGGAAAAUAGAAAUAAAGUUGGUCAAAUUAGCCGAAACCGAAUUUA'
p140
aF0.9512195121951219
aa(lp141
S'loops and stems'
p142
aS'.....(((((((...((((...((((...((((.........(((((............)))))...))))....((((..........))))...))))...(((........)))...))))..((......))...))))))).....'
p143
aS'AAAAAGAUAGACAAAGUUCAAAGAUCAAAGACCAAAAAAAAAGAUACAAAAAAAAAAAAGUAUCAAAGGUCAAAAGAACAAAAAAAAAAGUUCAAAGAUCAGAGACAAAAAAAAGUCAAAGAACAAGCAAAAAAGCAAAGUCUAUCAAAAA'
p144
aF1.0
aa(lp145
S'Water Strider'
p146
aS'.....((.((..(((((.(((....)))(((....)))))).....((((((....)))(((....))).)))))..)).)).....................'
p147
aS'AAAAGGAUCGGGAAAGAAUUCAAAAGACUACAAAGGAGGCAGGGGGGCUGGUAAAACUGUGAUACUGUGAGGAUAAGUGUUUAAAAAAAAAAAAAAAAAAAAA'
p148
aF0.941747572815534
aa(lp149
S'The Turtle(s) Move(s)'
p150
aS'...((....))....(((((((((.........)))))))))....((((.....)))).....(((....)))...(((((.......)))))....(((...((....)).....(((....)))....((((((.......))))))....(((....))).....((((((....(((.......)))..(((........)))...(((((......)))))...((((.....))))..)))))).........((....)).....((....))......(((((..........)))))......)))'
p151
aS'AAGUAUAAUGAAUGACAUGGUGAAGAAAAAAAAUUUGGCAUGACACCACUAAAACGAUCUAAGAGCCGAAAGCCAACUAAAAAAAAAACUUGUAUAAAGCCGAAGCAAAGGCACAGAGAGGAAAUUCGAAAGUUCGCAAAAAAAGCGAACAAACGUCAAAAGGCAAAAUGACGGCAAAUGAUAAAAAACGUGUAUAGAAAAAAAACUAGAAGGUACAAAAAAGUAUCAAAGGUCAAAAAGAUCGAGCUGACUAAAAAAAGCUAAAAGGAAUCGGUGAAAACAACCAGGAUAGUAAAAAAAAUUUGUCGAAAAAGGC'
p152
aF0.9873417721518988
aa(lp153
S'Adenine'
p154
aS'(((((.((((((.((((((.((((((.((((((.((((((....((((((......)))))).)))))).(((((...(((((((...)))))))))))).)))))).((((((((((((...)))))))...))))).))))))....))))))....))))))....)))))'
p155
aS'GAUACAGAUAGCAGAUAGCAGAUAGCAGAUAGCAGAUAGCAAAAGAUAGCAAAAAAGCUAUCAGCUAUCAGAUACAAAGAUAGACAAAGUCUAUCGUAUCAGCUAUCAGAUAGGAGAGACAAAGUCUCUCAAACUAUCAGCUAUCAAAAGCUAUCAAAAGCUAUCAAAAGUAUC'
p156
aF1.0
aa(lp157
S'Tripod5'
p158
aS'..((((((((.....))))((((.....))))))))..'
p159
aS'AAGUUCGUUCAAAAAGAACGAUCAAAAAGAUCGAACAA'
p160
aF1.0
aa(lp161
S'Shortie 6'
p162
aS'((....)).((....)).((....)).((....))'
p163
aS'CCAAAAGGAGCGAAAGCGGCAAAGGCAGGGAAACC'
p164
aF1.0
aa(lp165
S'Runner'
p166
aS'.....((((.((((.....((((...)))).))))...(((..((((((...)))...)))((((((...)))...))).)))...(((...(((....))).))).)))).....'
p167
aS'AAAAAGAUCAGUUCAAAAAGAUCAAAGAUCAGAACAAAGGCAAGAGGACAAAGUCAAACUCGACCCCAAAGGGAAAGUCAGCCAAAGACAAAGAUAAAAGUCAGUCAGAUCAAAAA'
p168
aF1.0
aa(lp169
S'Recoil'
p170
aS'.....(((((..((..((..(((..(((..((..((...)).)).))).))).)).)).))))).....................'
p171
aS'AAAAAGAUACAAGCAAGCAAGACAAGACAAGCAAGCAAAGCAGCAGUCAGUCAGCAGCAGUAUCAAAAAAAAAAAAAAAAAAAAA'
p172
aF1.0
aa(lp173
S'[CloudBeta] An Arm and a Leg 1.0'
p174
aS'.....(((.(((((....)).)))(((.((....))))).)))....................'
p175
aS'AAAAAUCGGGCAGCGAAAGUAUGCGCCAGCUAAUGCGGCACGAAAAAAAAAAAAAAAAAAAAA'
p176
aF1.0
aa(lp177
S'[CloudBeta] 5 Adjacent Stack Multi-Branch Loop'
p178
aS'(((((((((....))))(((((....)))))(((((....)))))((((....))))))))).'
p179
aS'GAUACUCAUAAAGGUGAGCUUCAAAAGAAGCGUUUGAAAGCAAGCAGUUGAAAAGCUGUAUCA'
p180
aF1.0
aa(lp181
S'Triple Y'
p182
aS'.....((((((((((((....))))((((....))))))))((((((((....))))((((....))))))))))))....................'
p183
aS'AAAAUGAACGAGGGCGUUAAUGUUUUGAGGAAACUCACUUCGAUACGUCAAAGGACGACUGGAAAGGUAAACCGUUCUAAAAAAAAAAAAAAAAAAA'
p184
aF0.9175257731958762
aa(lp185
S'Misfolded Aptamer'
p186
aS'((((......(((((...))).((....)).........)).....))))'
p187
aS'GGUCAAAAAAUGCCAGGGGAGAGUAAAGACGGGGGCGAGCCGAACAGAUC'
p188
aF0.88
aa(lp189
S'Flower power'
p190
aS'.....((((((((...)))).((((((((...))))..((((...))))..((((...)))))))).((((...))))))))....................'
p191
aS'AAAAGGCACUCCCCGCGGUAUCAUCUCUUGAAGAUAAGAUGGAAGGCGUAUCUGUAAAGAGCGAAGUAAUCUAAGAUAAUCGAAAAAAAAAAAAAAAAAAAA'
p192
aF0.9215686274509803
aa(lp193
S'Kudzu'
p194
aS'.....(((.(..(.(((((.((((.((...)))).))))((((((...)).))))..(((...)))...))).)..).)))....................'
p195
aS'AAAAAGACGGAGGGGAGGCAGAGCAGCAAAGCGCAUCGCGAUAGCAAAGCAUAUCAAGCCAAAGGCAAACUCACGGCAGUCAAAAAAAAAAAAAAAAAAAA'
p196
aF1.0
aa(lp197
S'"1,2,3and4bulges"'
p198
aS'.....((((.(((((....))....))).(((....))).)).)).....((((.((((....))...)).(((....))).))..))....................'
p199
aS'AAAAUUACGAUAUGAAAAGCCCAAAAUCUUCAAAAAAGGAAGCUGUAAAUUACAGGGCGAUAGCGAAAUUGGCCAAAAGGUAUUAAUAUAAAAAAAAAAAAAAAAAAA'
p200
aF0.8888888888888888
aa(lp201
S'medallion'
p202
aS'((((((.((((((....)))))).(((....))).(((....))).((((((....)))))).(((....))).((((((....)))))).(((....))).(((....))).((((((....)))))).(((....))).((((((....)))))).(((....))).(((....))).((((((....)))))).(((....))).((((((....)))))).(((....))).(((....))).((((((....)))))).(((....))).((((((....)))))).(((....))).(((....))).((((((....)))))).))))))'
p203
aS'GAUAGCACAUAUGAAAAUAUAUGGGACAAAAGUCAGACAAAAGUCAGAGAGCAAAGGCUCUCAGUGAAAACGCAUAUAUAAAAAUGUAUAAGACAAAAGUUGGUGAAAGUACGGGUAGUAAAAGCUAUCAGGCAAAAGUCGGAUGGCAAAAGCCAUCGGAGAAAACUCAUUCUAAUGAAACAUAGCAAAAGCUAUGAAUGAAAACAUGGAUAGGGAAACCUAUUAGACAAAAGUCAGAUAAAAGUCAAAUAUCAAAAGGUAUUCUGGAAAACCGAGAUUGCAAAAGCGAUCAGGCAAAAGCUAGGCAAAAGUCAAAUAGCAAAAGCUAUUAGCUAUC'
p204
aF1.0
aa(lp205
S'[RNA] Repetitious Sequences 8/10'
p206
aS'((......((......))......(((......((......))......((......))......)))......)).....'
p207
aS'GUGAAAAGUGUAAAAUUGAAAAAUGAGAAAAAAUCAAAAAAGUAAAAAGGCUAAAAUGGACAAAAAUCGAAAAAACAAAAA'
p208
aF0.9506172839506173
aa(lp209
S'Documenting repetitious behavior'
p210
aS'.......((.........((.........((.........((.........((.........((.........((.........((.........((.........((.........((.........((.........((.........((.........((.........((.........((.........((.........)).........)).........)).........)).........)).........)).........)).........)).........)).........)).........)).........)).........)).........)).........)).........)).........)).........))......'
p211
aS'AAAAAAAGGAAAAAAAAAGGAAAAAAAAAGGAAAAAAAAAGGAAAAAAAAAGGAAAAAAAAAGGAAAAAAAAAGGAAAAAAAAAGGAAAAAAAAAGGAAAAAAAAAGGAAAAAAAAAGGAAAAAAAAAGGAAAAAAAAAGGAAAAAAAAAGGAAAAAAAAAGGAAAAAAAAAGGAAAAAAAAAGGAAAAAAAAAGCAAAAAAAAAGCAAAAAAAAACCAAAAAAAAACCAAAAAAAAACCAAAAAAAAACCAAAAAAAAACCAAAAAAAAACCAAAAAAAAACCAAAAAAAAACCAAAAAAAAACCAAAAAAAAACCAAAAAAAAACCAAAAAAAAACCAAAAAAAAACCAAAAAAAAACCAAAAAAAAACCAAAAAAAAACCAAAAAAAAACCAAAAAA'
p212
aF1.0
aa(lp213
S'7 multiloop'
p214
aS'(((((((((....)))))(((((....)))))(((((....)))))(((((....)))))(((((....)))))(((((....)))))))))'
p215
aS'GAUGGAUGGAAAACUAUCUAUUCGAAAGGAUAGAUACUAAUGUAUCGAUACAAACGUAUCGCGACUAAUGUUGCUAUACCAAUGUAUACAUC'
p216
aF1.0
aa(lp217
S'Kyurem 7'
p218
aS'.....((((((((((....)))(((....((((.(((.....))).((((((......)))...))))))))))))).))))....................'
p219
aS'AAAAAGAUAGACGGUAAAAACCGACAAAAGAUCAGACAAAAAGUCAGACGACAAAAAAGUCAAAGUCGAUCGUCGUCAUAUCAAAAAAAAAAAAAAAAAAAA'
p220
aF1.0
aa(lp221
S'JF1'
p222
aS'(((((((((((.(((((..(((((....((((((..(((((...(((((..((((((.((((((((((((((....))))))))))))))..(((....))).(((((((((....)))))))))..(((((....))))).)))))).))))).))))).))))))...((((((((.....))).)))))..((((((((((((((((((((((((....)))))))))))))).))))))))))...(((((......)))))((((((((((....))))))))))...((((....))))..)))))..))))).((((.(((.(((....)))))))))).(((((((((....))))).)))).)))).))).))))...'
p223
aS'GAUGGAUGAGAAGAUACCAUAUACAAAAGAUAGCAAGAUACAAAGAAUCAAGAUAGCGAUAUAUAUAUAUACAAAAGUAUAUAUAUAUAUAAGACAAAAGUCAGAUAGAUACAAAAGUAUCUAUCAAGAUACGAAAGUAUCAGCUAUCAGAUUCAGUAUCAGCUAUCAAAGAUAGGACAAAAAGUCACUAUCAAGAUAGAUAGAGAGAGAGAGAGAGCAAAAGCUCUCUCUCUCUCAUCUAUCUAUCAAAGAUACAAAAAAGUAUCGAUAGAUAGCAAAAGCUAUCUAUCAAAGAUCAAAAGAUCAAGUAUACCGUAUCAGAUCAGACAGACAAAAGUCGUCGAUCAGAUAGAUACAAAAGUAUCAUAUCAUCUCAAUCACAUCAAA'
p224
aF1.0
aa(lp225
S'multilooping fun'
p226
aS'(((.(..((.((....)).((....)).))..).(....).)))'
p227
aS'CGCGUGGAGAAGUAAGUAUAGAAUACCUCUGUGUUAAAAAAGUG'
p228
aF0.9090909090909091
aa(lp229
S'Multiloop...'
p230
aS'((((.((((.(((....))).(((....))).(((....))).(((....))).(((....))).(((....))).)))).(((((......)))))(((....)))))))'
p231
aS'GAUCAGAUCAGACAAAAGUCAGACAAAAGUCAAACAAAAGUUACACAAAAGUGAGAAAAAAUUCAGCCAAAAGGCAGAUCAAAUACAAAAAAGUAUUGACAAAAGUCGAUC'
p232
aF1.0
aa(lp233
S'hard Y'
p234
aS'.....((((((.((((((((....))))))).)))((((((((((....)))))))))))))).....'
p235
aS'AAAGGGGUGGUACUUGCCGCGAGCGCGGGGAAGGCGGAGGAUCUGGAAAUAUGUGAAGACCAUAAAAA'
p236
aF0.9705882352941176
aa(lp237
S'Mat - Elements & Sections'
p238
aS'.....((((.(...(.((((.(.((((.((.((((.((.(((....))).).)))))).).))))....).)))).)...).))))....................'
p239
aS'AAGAUGUUGUGGAGGUCAUAUCAGGUCAAGACCUCAUCCGCCGAAAGGCCGCAGAGGCAUGGACCAAAGGCGAUGUAAAACUCAACUAAAAAAAAAAAAAAAAAAA'
p240
aF0.9622641509433962
aa(lp241
S'Chicken feet'
p242
aS'.....((.((.((...)).((....))...)))).((.((.((...)).((....))...)))).....'
p243
aS'AAAGUGCAUGUGAGAAUAUCAAAAGUGUCGUGGCUGAAUUAUAGAAGGGCUAAAGACAAAAGGCUAAAG'
p244
aF0.855072463768116
aa(lp245
S'Bug 18'
p246
aS'.((.((.((.((..((..((.((...))..)).)).))..))..))....)).'
p247
aS'GGGGAUUGUGCUGAGUAGGCUCAUAUUCAUAAGGAAGCGAUCUAGGAAAAUCA'
p248
aF0.9245283018867925
aa(lp249
S'Fractal star x5'
p250
aS'.....((((((((..((((....))))..((((....))))..((((....))))..((((....))))..)))))))).....((((((((..((((....))))..((((....))))..((((....))))..((((....))))..)))))))).....((((((((..((((....))))..((((....))))..((((....))))..((((....))))..)))))))).....((((((((..((((....))))..((((....))))..((((....))))..((((....))))..)))))))).....((((((((..((((....))))..((((....))))..((((....))))..((((....))))..)))))))).....'
p251
aS'AAAAAGAUGGGUCGAAUUCUAAUGAAUAAGAGAAAAGUUUCAAGAGCAAAAGCUCAAGAUCUAAUGAUCGAGGCCUAUCAAAAAGAUAGAAUAAGCGCAAAAGUGCGAGGUCAAAAGGCCAAGAGCAAAAGCUCAAACUUUAACAGGUGGAUUCUAUCAAAAAGUUAGAUCAAAUACAAAGGUAUAAGAUAGAAAUAUCAAGGUGAAAACACCAACAUCAAAAGAUGAAGAUCUAGCGAAAACAUAGAUAAAAUACAAAAGUAUAAAAUCAAAAGAUUAACAUCUAAUGAUGAAGAUCAAAAGAUCGGUAUCUAUGAAAAAUAUAGCUCGAAGACAAAAGUUUAAAAUCAAAAGAUUGAGGUCAAAAGACCAACAUCGAAAGAUGAAGAGCUAUAAAAAA'
p252
aF1.0
aa(lp253
S'Crop circle 2'
p254
aS'((...((....((.....((.........((..............................))...............)).........)).......))....))....'
p255
aS'GAUAAUGUAAUGUAAAAUUCUAAAAAAAUUGUAAAAAAAAAAAAAAAAAAAAAAAAAAAAUCGUAAAAAAAAAAAAAUGACAAAAAAAGAAUAAAAAAUGGAAUGCAAAA'
p256
aF0.9636363636363636
aa(lp257
S'Branching Loop'
p258
aS'.(((((........)((((....))))..)))).......'
p259
aS'UGCUUCUAAAAAAUGUGUCGAAAGACAACGAGCUAAAAAA'
p260
aF0.95
aa(lp261
S'Bug 38'
p262
aS'.((.((.((..((.(...).)).))..))....)).'
p263
aS'ACCACAAGCAAAUAGACAAAAUGGCAAGGAAAUUCA'
p264
aF0.8888888888888888
aa(lp265
S'Simple Single Bond'
p266
aS'......(......((((.....))))......)......................'
p267
aS'AAAAAACGAAAAAGCGCAAAAAGUGUGAAAAAGGAAAAAAAAAAAAAAAAAAAAA'
p268
aF1.0
aa(lp269
S'Taraxacum officinale'
p270
aS'((((....).))).((((....).))).((((....).))).((((....).))).((((....).))).((((....).))).((((((((((((((((((((((...)))).))))))).(((((..((((((((((..(((((((...))))))).))))))))))((((.((((((...)))))))))))))))...))))))))))).((((....).))).((((....).))).((((....).))).((((....).))).((((....).)))'
p271
aS'GAUAAAAAGAGGAGGCCCUCAUCAGGUAGAUAAAAAUAAUUAUUGUAAAGAACAAAGGCAGAAAAGGCCGGUCCAAAAGAGGCAGGUAGGUAGUCGAUACACCAGAGAAUCUAUGUGUAUCAGACUUAAAGACUUACGCAAUUUGGACGAAGUCCAAAGGCGUAGGUUUUACCAGAUAGCGAAGCUAUCGGUAGAGUUGAAGGCUACCUAUCGGCACAAAGUAGGCGGAGGAAAUACUCUUAGCCUAAUGACCCGUCUUUAAUAAGCAACGUGAAAUCAACG'
p272
aF0.9219858156028369
aa(lp273
S'Headless Bug on Windshield'
p274
aS'.((.((.....(((((...((.(((.........................))).))...))).))...)).)).(((..(((..((.......((....)).......)))))......))).(((((.......(((..((..(((..((.(((...............)))..))..)))..)).)))..))..))).'
p275
aS'ACAAGCUAAAUGUAUCAAAGCUUCGAAAAAAAAAAAAAAAAAAAAAAACGCUGGGAAAUGAUAGCCAGGUGACGGGUAGUAGAAGGAAAAAAAUCAAAGCGGAAAAAACCUUGAAAAAAAGCACAUGAAAAAAAAGCCAAUAAGACUAAUAAGUUAAAAAAAAAAAAAAAGGUAAGAGGGGUAGUGGGGCAAUUAAGUUG'
p276
aF0.98
aa(lp277
S'Pokeball'
p278
aS'...(((((((....((..((..(((..((..((..((..((..((..((...)).))..)).)).))..)).))).)).)))))))))........(((((((....((..((..(((..((..((..((..((..((..((...)).))..)).)).))..)).))).)).)))))))))...'
p279
aS'AAAGAUAGGGAAAAGCAAGAAAGACAAGAUGUCAAGAAAGAGUUCAAGCAAAGCAGAUAUCGUCGGAGUUCAGUCAUCAGCCCCUAUCAAAAAAAAGUUAGACAAAAGUAACAAAGGCAAGAUUUCAAGAAAGCGAAGGAGCAAAGCACUCAGCAUCAGAUUUCAGCCAUGAACGUCUAACAAA'
p280
aF1.0
aa(lp281
S'Variation of a crop circle'
p282
aS'....((....((....((....((..((..((...))..))....))......)).......)).........)).............'
p283
aS'AAAUGUGAAGGGGAAGAUAAAGCGGGGCUAGUGAAAGGUGUAAAACGAAAAAACCAAAAAAACAAAAAAAAAAGUUAAAAAAAAAAAA'
p284
aF0.9318181818181818
aa(lp285
S'Loop next to a Multiloop'
p286
aS'..((((((((.......(.((((((....)))))).(((((((....))))))).).......))))))))..'
p287
aS'AGGUUAGUUUGAAAAAAGGAAUUUCGAAAGAGAUUAGUCAGUCUAAUGGUUGGCACGAAAAAAGAACUAACAA'
p288
aF1.0
aa(lp289
S'Snowflake 4'
p290
aS'((((...))))(((((((....))(((((..(((((((....))(((((((((...))))..((((...)))))))))((....)))))))..(((((((....))(((((((((...))))..((((...)))))))))((....)))))))..(((((((....))(((((((((...))))..((((...)))))))))((....)))))))..(((((((....))(((((((((...))))..((((...)))))))))((....)))))))..(((((((....))(((((((((...))))..((((...)))))))))((....)))))))..)))))((....)))))))((((...))))'
p291
aS'GAGCAAGCCGCCGAGAGCGAAAGUUGUAUAAGUUAGGGGAAAACGACCCGUCCAAAGGUCAAGAUCAAGGAUCGGGUCGCUAAUGCUUAACAGGACACUCAAAGGCGACUCAGACAAAGUCUAAGCUCAAAGAGCGAAUCCCAAAAGGGUAUAAAGUCCCUAAAAAUGCAGACCGACUAUGUCGAAGAUCAAAGAUCGUCUCGCGAAAGCGUGACGAAUUUCGGAAAAUCGAUAGCGGCAAGGUCGAAGAUCUAUGAUCGGAUCGUGAAAACGGAGUUAGAGAUGUAAAGGCGAUCCGGACGAAGUACAAGAUGCAACAUCGUAUCACAAAAUUAUCUCGGAUACAUCAAAAGCUCUUGGGCAAAAGAUC'
p292
aF0.9135135135135135
aa(lp293
S'Mat - Cuboid'
p294
aS'(..((....((..((....((..((....(..((..((....((..((..((....(..((..((..((....((..((..((..((....((..((..((..((..((....((..((..((..((..((....((..((..((..((..((..((....((..((..((..((..((..((....((..((..((..((..((..((......))..))..))..))..))..))))..))..))..))..))..))))..))..))..))..))..))))..))..))..))..))))..))..))..))..))))..))..))..))))..))..))..)))..))..))))..))..)))..))))..))))..)'
p295
aS'AACUGCAAAGCGAGGAAAAUCUAACAAAACUAUCUAUUAAAAGCGAGCUAGGAAAAUGCUAUUCUAGGUAAAAACAAUCCGUCUGUCAAAACCGGUCAAUGGAUGAUUAAAAAGCAGCUGCUGUUUCCUCUAAAAGCAAAUCGGCAAUGACUCUGGUAAAAUUGAGCGAUGGGUCUAAUAGUCAAAAUCCAGCGUUUGAGCAUUUAACGGAAAAACGGGAAUGGCAAGAUAGCGCGGGUAGGUCGGAAAGAGAAUGAAUGCGUGAGACAGCGCAAGUAGGGAGCGGGUUCAUAGGAGGCUAUACAGAUAGAGAAAGGGAUUCAAUGAGGGUACAGAGUUCGGAGGCGUGUGAGCGAGUGUGUUGUGUGACCAAGCCAAGU'
p296
aF0.9421052631578948
aa(lp297
S'Misfolded Aptamer 6'
p298
aS'......(((......((((..(....(((........)))....).....)))).......)))...........'
p299
aS'AAAAAGGACGAAAAAGAGCGGGGGGGGACAAAAAAAAGUCGGAACAAAAAGUUUGAAAAAAGUCAAAAAAAAAAA'
p300
aF1.0
aa(lp301
S'Snowflake 3'
p302
aS'(((((....)).((((((....)))..((((.((((..(((....)))(((.((....))(((...)))((....)).)))(((....)))..)))).((((..(((....)))(((.((....))(((...)))((....)).)))(((....)))..)))).((((..(((....)))(((.((....))(((...)))((....)).)))(((....)))..)))).((((..(((....)))(((.((....))(((...)))((....)).)))(((....)))..)))).((((..(((....)))(((.((....))(((...)))((....)).)))(((....)))..)))).))))..(((....)))))).((....)))))'
p303
aS'GAUGCCAACGCAGAUUACUAAUGUAAAGAUCAAAUGAAGAAAAAAUUUGACAAAUAAUUUGAUAAAGUCGCGAAAGCAGUCUACGAAAGACAAUAUUUGAUCAAUACAAAAGUAGACUAGAAAAUCGAAAAAUUCGCAAAAGGUGUCGUCAAAAGACAAUAUCAGAGCAAGAGAAAAUUCGACAACAAAAGUUUCAAAGGAGCAAAGGUAGUCCACUAAUGUUAAGUUCUGUGCAAUAGUAAUCUAGACUGCAAAAGCGACAAGGUCGUUAAGGCUGUCGGUGAAAACCAAGCUCUGUUCAAGUUAAAACGCGACAUGUAAUGUGACAAAGUCGCAAAAGAGGUUGCAAAAGCUCAAGAAAUGAUUAAGCAAAAGUGCGUCAACGAAAGUAUC'
p304
aF0.8625954198473282
aa(lp305
S'Hard Y and a bit more'
p306
aS'.....(((((((.(((((....)))).)))(((((.((..((((....))))..(((((......)))))..)).))))))))))...................._'
p307
aS'AAAAUGUUAAUCGGCAACAAAAGUUCACGAGAUACACAAGUGUGCAAACAUUAGUCCAGUAAAAUGUGUGAAUCGGUAUCGUAGCUAAAAAAAAAAAAAAAAAAAA'
p308
aF0.9716981132075472
aa(lp309
S'Mat - Lot 2-2 B'
p310
aS'((..(((..((((..((....((..((((....))....))..))))..))....))..))((..((..((..((((..((....((..((((..((....((....))))..))....))..))))..))((..((..((....))((..((((..((....((..((((....))....))..))))..))....))..))))..))..))..))((..((....((..((((..((....((....))))..))....))..))))..))))..))..)..))'
p311
aS'GUAUAGCCAUACUACACAAAAGAGAUCGCGAAAGCAAAAGAGAUCGUGGGGAAAAUGGGGCGAGUUAAAUGCCCAACUAUCAAAACCCAAAGACGAGAAAAGCUAAUGCCUACUCAAAAUUGGCGGAACGUUGUAUCAACCAAAGGGGGAUUAGACCUUAAAAUCACUAGCAAAGGCAAAAUAGGGAAAGGUCAAAAUAAGUCGAGACGAAUGGGCGAAAUUCAAAAGCCUGUGGAGCGAAAAGAAAAAUCUGACCCAAAAUCUGGAGGUGUUUAGAUCAAUUGCC'
p312
aF0.8881118881118881
aa(lp313
S'Shapes and Energy'
p314
aS'......(.((((.((((....(...((((.(....).))))...)))))..((......((((....)))))).)))).).....................'
p315
aS'AAAAAGGUGUUCGGGAUAAAAGAAAGAUCUGAAAGCCGAUUGAUCGGCCAGUUUAAAAAGUUCGAAAGAGCAGAGAGUUUAAAAAAAAAAAAAAAAAAAAA'
p316
aF0.9603960396039604
aa(lp317
S"Spiral of 5's"
p318
aS'(....(((((...(((((...(((((....(((((...(((((...(((((..(((((....(((((...(((((...(((((..(((((...(((((...(((((..(((((...(((((..(((((..(((((..(((((..(((((.(((((.((((((((((.....))))).....))))).....))))).....))))).....))))).....))))).....))))).....))))).....))))).....))))).....))))).....))))).....))))).....))))).....))))).....))))).....))))).....))))).....))))).....))))).....))))).....)))))....).....'
p319
aS'GGGAAAAUACAAAGAUACAAAGAUACGAAAGAUACAAAGAUACAAAGAUACAAGAUACAAAAGAUACAAAGUUACAAAGAUACAAGAUACAAAGAUACAAAGAUCCAAGAUGCAAAGAUACAAGAUACAGGGUACAAGAUACAAGAUACAGAUACGGAUAGGAGACAAAAAGUCUCGGGGGCUAUCAAAAAGUAUCAAAAAGUAUCAAAAAGUAUCAAAAAGUAUCAAAAAGUAUCAAAAGGUAUCGAAAAGCAUCAAAAAGGAUCAAAAAGUAUCAAAAAGUAUCAAAAAGUAUCAAAAAGUAGCAAAAAGUAUCAAAAAGUAUCAAAAAGUAUCAAAAAGUAUCAAAAAGUAUCGAAAAGUAUCAAAAAGUAUCAAAAAGUAUUGGGGCAAAAA'
p320
aF1.0
aa(lp321
S'Campfire'
p322
aS'....((((..(((((..((((..((((.....))))((((((...))).)))))))((((((.((.((.(((((....)).)))))))(((((.((.((.((....))))))(((((.(((....)).))).)))..)).)))))).))))))))(((.(((.(((.((((....))))))))))((((((((...))).)).))).)))))))'
p323
aS'AAAAGAUCCUGAUACAAGCAGAAUGUCACCAGGACGGAUGACGAACUCAGUCCUUCUGGGCUAGAAGCAGGCCAGAAAUGAGUUAGCCGGCGUGCCCGUAGCUAAUACACUGAAGAUAGCUAAAAACACAUAGAUAAGGAACAGGUUUCAGUAUCCACAGACAGUGAUAACGAAAGUUACGUGUCGACGUGAGUAUCGCAGCAGUGGGUGGAUC'
p324
aF0.9065420560747663
aa(lp325
S'Anemone'
p326
aS'...((((((....))))))(((((....)))))((((((....))))))(((((....)))))((((((....))))))(((((....)))))(((((....)))))((((((....)))))).(((((....)))))((((((....))))))(((((....)))))((((((....))))))(((((....)))))((((((....))))))'
p327
aS'AAAACCGUCAAAGGAUGGUGCCAGUAAUCUGGCCGAGUUUAAUGGCUUGGCUAUUCAUAUAGCGUUCUUGAAAAAGGACGAGACUAAUGUCUCGGAGGUAAUUCUCCACCAUAGAAAUAUGGUUGAUACUAAUGUAUCGUGGGGAAAGCUCUAUGACAGUAAUUUGUCGCCACAGAAAUGUGGCGUGCAGAGAUGCACGGGUGGUAAUCCACCC'
p328
aF1.0
aa(lp329
S'Fractal 3'
p330
aS'.....((((.(((.((....))((....)).))).(((.((....))((....)).))).(((.((....))((....)).))).(((.((....))((....)).))).)))).....'
p331
aS'AAAAAAGCCAGAUAUCAAAAGGUCUAAUGGAUAAGCGCAGAAAAGAUCGAAAGCGAGCGAGUCACGGAAAUCCAAAAAGUAGGGGAGCGGAAAAAUUCGAAAGUGAGUUAGGGUUAAAA'
p332
aF0.8739495798319328
aa(lp333
S'Kyurem 5'
p334
aS'.....((((((((((....)))(((....((((((((...(((.....)))))))(((......))).))))))))))..))))....................'
p335
aS'AAAAAGUGACCCGCCAAAGGGCGGUAAAAGCGCGAUUAAAGCCAAAAAGGCAAUCGACGAAAAAGUCAGUGCACCGGGAAUCGCAAAAAAAAAAAAAAAAAAAA'
p336
aF1.0
aa(lp337
S'Snowflake Necklace ( or v2.0 )'
p338
aS'(((((((((((((((.(((((.((.....)).((.....)).((.....)).((.....)).((.....)).))))).(((.....))).(((((.((.....)).((.....)).((.....)).((.....)).((.....)).))))).(((.....))).(((((.((.....)).((.....)).((.....)).((.....)).((.....)).))))).(((.....))).(((((.((.....)).((.....)).((.....)).((.....)).((.....)).))))).(((.....))).(((((.((.....)).((.....)).((.....)).((.....)).((.....)).))))).)))))))))))))))'
p339
aS'GAUAGAGAGUUAGUCGAAACCGUCUAAAUAGAAGAAAAACUAGGAAAAACCAGCGAAAAGCGUCAAAAGGGAGGUUCAGACAAAAAGUCAGAAAUAGUUAAAUGCACCAAAAGGGAACGAAAAGUAUGGAAAAAGGGGAAAAACCAGUUACAGAGAAAAAUUCACUUACGUUAAAAAAAAACAAAAGGUGGCAAAAAGCAGUAAAAAACAGCAAAAAGCAGGAGGAGUCAAAAAGGUAGAUUCAUGUAAAACAUCCAAAAAGCGGGAAAAACCACCAAAAAGGUGCAAAAAGCUGGAGCUGUGAAAAACGCUGGUACAUUGAAAAGAAGCAAAAAGCAGGAAAAGCAUUAGAAAACCUCCAAAAAGCACUGCAUGGCUAGCUUUCUAUC'
p340
aF0.9177377892030848
aa(lp341
S'Methaqualone C16H14N2O Structural Representation'
p342
aS'.......((((.((((.(((.(((....))).(((.(((....))).(((.(((....))).(((.(((....))).(((......))).))).))).))).))).(....).)))).((((...(((.(((...((....))........))).(((.(((....)))(((....)))(((....)))))).)))...((((.(....).(((.(((.(((.(((.(((...(((....))).))).(((....))).))).(((....))).))).(((....))).))).((((((....)))(((....))).(((....)))))).))).))))...)))).)))).......'
p343
aS'AAAAAAAAAUCAUAUCAGACGGACAAAAGUCACCCACCAAAAAUGGAGAUUCACCAAAUGCUGACAGUCAAAAGUCGAACAAAAAAGUUGUUCUGUUAGGGGGUCGGAAAACGGAUGGCAUCAAAUAUAGGCAAAGGAAAACCAAAAAAAAGCCAGAGAGAUAAAAAUCUACAAAAGUGGUCGAAAGACCUCGGAAAAAGACCAAAAAGUAGGCAGAUCCGUAGUGAAUCAAGGCAAAAAACCGGAUGGACAAAAGUCACACGCGCAAAAGCUGACCAGUCAGAAGACUGUCACACGCCAAAAGGCUACAAAAGUGGUACAAAAUUAGUGAGCCGGAUAAAAGAUAAGACCAAAAAAA'
p344
aF0.8603351955307262
aa(lp345
S"Cat's Toy 2"
p346
aS'....((((((((....((..(...................)..(((...((....))...((....))........))).......))))))))))....'
p347
aS'AAAAAAUAAGUUCAAACUAUCUAGUAAAAAAAAAAAAAUUGUAACGUAGGAGAAAGCAAUGAUAAUUUUAAAAAAAAAGAAAAAAAAGAACUUAUUGAAA'
p348
aF0.92
aa(lp349
S'Zigzag Semicircle'
p350
aS'....(((((((((.((....))).)).).)))))....'
p351
aS'AAAGGAUAGCCGGCGUUAAUACCAUGAGUCUAUCAAAA'
p352
aF1.0
aa(lp353
S'Short String 4'
p354
aS'......((.((..((..(...(.((.((....))))..)...(.((..((....))..))..)...).))..)))).....................'
p355
aS'AAAAAUACAACGAUGAGGUAUUAAUAUCAAAGGGGCGAAAAAUAGGGGUUAAAAAAUAUGAAGAAUCGUAGAAUGUAAAAAAAAAAAAAAAAAAAAA'
p356
aF0.9381443298969072
aa(lp357
S'Gladius'
p358
aS'((....))..(...(...(..(.(..(...(((.(((...((((....)))).((((((.((((((.((((((.((((((.((((((((((.((((((.(((((.((((.((((..((((...)))).))).)))))).))))).)))))).)))))))).)))))).)))))).)))))).))))))).)))...(((.(((((.(..((((.(..((((.(..((((.(..(((((((.((((((.(((((.((((((.(((.((((((....))))))..)))).)))).))))).)))))).)))))))).)..)))).)..)))).)..)))).)..))))).((((....))))...))).)))...)..).)..)...)...)..((....))'
p359
aS'GCAAAAGCAGUAGAAAAAAAGUGGACUAAUUCCAGAGAAAGAUCGAAAGAUCAGAUAGCAGGAUAUACGAGACAGGAUUCAGGAUAGAUAAAGAUAUACGAUAGAGAUGAGGACAAGCCCAAAGGGCAGUCACCAUCUAUAUCUAAUAUCAAUAUCUAUCGAGGAUCACGUCUCAGAUAUCACGCUAUCACUCUAAAAAAAUGGCAGAAGAUCCGAAGAUUAGCUGAUCGGAAGUUAGACAGGAUACAUGAUCAGGAGGCAGGCGAAUAGUUAAUACUAUUAAGCCGAUUUCACGAUCCGGUAUCACGUCUAACGUAAGAUCCCAAAAUCAGUAGAUCGCAAGUCAUAGAUCAAAAGAUCAAAUUAGAUGUAAAAUUAUCGUAAAUAAGGAACGGACACG'
p360
aF0.885
aa(lp361
S'Thunderbolt'
p362
aS'((..(((((........(.((..((.(.....(....).((((((((.........((......((((.....))))......))...((..((.......(..(......)..)..((..((.....((....)).((((.....(((.....(..((.(...).))..).....))).((((...(.......(..(.((...)).)..).......)...))))........)))).....((((((...)))))).))..))...........))..)).........(..((((....))((((((.....(........).....))))))..))..)...))))))))........).))..)).).....(.......).)))))..)).'
p363
aS'GCCUAAUACAAAAAAAAUGGGACUAGCACUCGGAAAACACAGAUGCCAAAGGGAAGGCAAAAAAGAUCAAAAAGAUCAAAAAAGCAAGGCCGUCAAAAAAAAUAUAAAAAGAGCUGAAUGUUCAAAAAGCAAAAGCGUGCCAAAAAGCCGAAAAACUUCGUAAAAAGAUAGCAAAAGGCAGAUUGAAGAAAAAAAGUCCGGCAAAGGAGUUCAAAAAAGCAAAGAUCAAAAAAAAGAAAAGGAAUUGUGUGAAACGUGGGGAUGACAAAAAAAAAAAGACAGCUAAAAAAAGACAUCGCAAAAGCGAUAUCAAAAAGAAAAAAAGCAAAAAGAUAUCAAGAGGUAAAGGUAUUUCAAAAAAAAAACAGGUAGAAAAAACAAAAAAAGAGUAUUGUGCA'
p364
aF0.9246231155778895
aa(lp365
S'Mutated chicken feet'
p366
aS'.......((.((.((....)).((...))...)))).((.((.((....)).((...))...)))).((.((.((....)).((...))...)))).......'
p367
aS'GAAAAAAAUAGAACGAAAACGAGCAAAUCAAGUCAUAGGAGAAGCUAAUGCGUCAAAAUAAUACGCUGCAGUAACUAAUGUGAAUAUGCAAAACGCUAAAAAA'
p368
aF0.883495145631068
aa(lp369
S'Chicken Tracks'
p370
aS'........(((((((((((....))))..((((....))))..((((....)))))))))))..(((((((...))))..((((...))))..((((...))))))).........'
p371
aS'AAAAAAAAGAUAGACGUUCAAAAGAGCAAGAUCAAAGGAUCAAGAUCGAAAGAUCGUCUAUCAAGACUGUCAAAGACAAAGAUCAAAGAUCAAGAUCAAAGAUCGUCAAACAAAAA'
p372
aF1.0
aa(lp373
S'Looking Back Again'
p374
aS'(((..(((((((.....((((((...)))))).))))..((((((..(((...)))))).(((((...((((....))))....)))))..)))..)))..(((((((.....(((((....)))))......)))((((((((((...)))))(((((...)))))((((((((..(..(..(..(..(..((((....))))..).)..))..).))(((....)))..))))))...))))))))).(((((.((((......(((((((........((((.....))))))))...))).))))((((......((((((((....))))))..(((((...)).(((((...)))))..)))))....)))))))))...)))'
p375
aS'UUUGAGACUAACAAAAUGAGAGCAAGGCUCUCUGUUAAGGGCGACAAGAUGAAGACGUCAGAUACAAAGACAAAAAUGUCAAAAGUAUCAAGUCAAGACAAUCUAGUCAAAAAGAUGGAAAAUCAUCGAAAAAGACUAGAAGAUACAAAAUAUCGAUCGAAACGGUCUUAAGCCUAAGGUUAACAGUAAGGAGUUCGAAAGAAUGACGAACCAUACCGGGACGAAAGUCAAGCUUAAAAAUUCGGUGUGGGAGAGAUGGGUAAAAUGGUGAGCAAAAAAAAGAUCAAAAAGAUCGCUCCAAACCUUCUAAAUAGAAAACAAGGUAGUAAAAGCUACCACGUGGAAAAGCAGAGAGAAGCUUUCAACGCGCAAAAGACCCUAUCAAAAGU'
p376
aF0.8920308483290489
aa(lp377
S'Multilooping 6'
p378
aS'..(((((((((((((....)))))(((((....))))))))((((((((....)))))(((((....)))))))))))))..'
p379
aS'AAGAUACGACGAUCCAAAAGGAUCGAUACAAAAGUAUCGUCGCCGCUACAAAAGUAGCGAUACAAAAGUAUCGGCGUAUCAA'
p380
aF1.0
aa(lp381
S'Cesspool'
p382
aS'((..(..((....))..(((.(..(.(((...)))..)..)..)))..(..(....)..).(..(....)..).....((....))..)..))..((..(..((....))..(((.(..(.(((...)))..)..)..)))..(..(....)..).(..(....)..).....((....))..)..))..((..(..((....))..(((.(..(.(((...)))..)..)..)))..(..(....)..).(..(....)..).....((....))..)..))..((..(..((....))..(((.(..(.(((...)))..)..)..)))..(..(....)..).(..(....)..).....((....))..)..))'
p383
aS'ACCUUAACUAAAAGGAAGAUGGUCUAGAUAAAAUCAAAGUCAAGUCAAGCCUAAAAAGGCUUCCGCAAAAGGAUCAGUUGGAAACGAAAUGGUAAUGGACAACCAAAAGCAAGCCAUCGGAGGAAAAUUCAACACGAAGGCAACCCGAAAACUGGAGCACAAAAGGGCACAGGGGUAAUCCGAGGGAAAGGCACUAGGCAAAAGAAAUACAGAGUAGUCAAAGACAAAAGUAAGUAAAGCCUAAAAGGGCUACCGAAAACGGUUCAGUACAAAAGUAAAGGGCAAAACCCAGGCAAAAGCAAUUCAGCCCGGUUAAAGAUAAGGGCAAGAGAACCGGAAAACAGGAUCCUGAAAAGGAGCAGGCCAAACGGAAAAGUC'
p384
aF0.8148148148148148
aa(lp385
S'Hoglafractal'
p386
aS'(.(((..(((((....(((((......))))))))))((((...((((.....))))))))(((..(((....)))))).(((...((((...((((......))))))))(((..(((.....))))))((.((....)))).((((....(((..(((......))))))((.((.....))))(((....))).(((((.....((.((......))))(((.....)))((....)).((((((......(((......)))((.....))...(((((((...))))))).......))))))......))))).....))))....)))...)))..)...(.((.((((....((....))((....))((((((...)))))).)))))).)'
p387
aS'AUUAUGAAUUUCAAAAGACACAAAAAAGUGUCGAAAUGAUUAAAGUGUAAAAAACGCGGACGGUUCACCAAACGUUACCACUCAAAGACCAAAGAUGUAAAAUUAUCGGUCGACAAGACAAAAGGUCGUCGCAGCGAAAGCGCAGCGCAAAAGCCAAGACGAAAAAGUCGGCGGAGCAAAAGGCCCAAUAAAGGUUAGAGAGAAAAACGAUGAAAAAAUGCGGACAAAAAGUCGUAAAAACGGAUAGCGAAAAAGGCGAAAAAGUCGGAAAAACUAAAGAUAGACGAAGUCUAUCGAAAAAAGCUAUCAAAAAGCUUUCAAAAAGCGCCAAAGAGGAAGUCUAGAAACAGCAGUUCAAAAGCAAAAGCCCAAAAGGGGUAGCUACACUAUCAGAACGCGG'
p388
aF0.99
aa(lp389
S'Bullseye'
p390
aS'...(((((((...))))..((((...))))..((((...)))))))........(((((((...))))..((((...))))..((((...)))))))........(((((((...))))..((((...))))..((((...)))))))........(((((((...))))..((((...))))..((((...)))))))...'
p391
aS'AAAGCGACGCGAAAUUUAAUGUAGAAUACAGAAUAUGAAAAGUCGCAAAAAAGGCAGGAGCGAAGCUCGAGAGCUAUACCUUAUCGAAAUGUUAAUGAAAAAAAGUCCUGUCGAAGACGGUCUUAUCAGAGGUAUGGGUACCCAGGGCAAAAAGAAGAACAAGGAACCUGAGGUCGGACCUGCACCAUUAAGGUAGGACGAA'
p392
aF0.8514851485148515
aa(lp393
S'Shooting Star'
p394
aS'(((((((((((((((((...(.(..((.(((.(((.((....).))).)))).).)..))..))))))).(((((..(.(..((.(((.(((((.(((.((((.((....).)))).))))).))).)))).).)..))..)((....))..))))(((((((((...))))).(((((...)))))(.(....).).)))).)))).((((.((((...(((((((...))))))).(((((...)))))))))(((((((...))))))).(((((...)))))))))((((..((....))(..((..(..(.(.(((.((((.((....).)))).)))).)..)..).))..))))).)))))).'
p395
aS'GAUAGCGAUGGAUAGACAAUGAGUCUCAGAGAGGCAGGUAAUUACGCACCUCGGAAGUCCUAGUCUAUCAGAGGCCGCAGCAUUGAGGAGGAUCAUAAAGGACAGCAAAAGACGUCAUUUAGAGUCAUCUUAAAGAACGAGGGUUAAUACAAUUUAGUGCCGAUCUCUGAUCGAGAUAUGAAGUAUCGGGAAAACACAGCAAAUAUCAGAGUCUAUUAAAGAACGAUAAAGUCGUUCAGUCACAAAGUGACGAUAGAUAGACAAAGUCUCUCAGUUACAAAGUAGCGCUUAAACAACGGAAAUCAUCCCAAGCAUAAAGACACGACAGUAAAAGUAGUUAGGUCGUUGAAGCGGGGUUCGGCAGCUAUCA'
p396
aF0.8567567567567568
aa(lp397
S'Teslagon'
p398
aS'......((.......((.((.......((.((...............)).........((...............)).)).......)).((.......((...............)).......)).((.......((.((...............)).........((...............)).)).......)).((.......((...............)).......)).((.......((.((...............)).........((...............)).)).......)).((.......((...........((...............)).)).......)).)).......))......'
p399
aS'AAAAAUCGAAAAAAAUAUGAGAAAAAUGCGGGAAAAAAAAAAAAAAAGUAAACAGUUACACGAAAAAAAAAAAAAUCGGUAAAAAAACCUAGAAAAAAAGAGAAAAAAAAAAAAAAGUAAAAAAACUAUCAAAAAAAUAUGCAAAAAAAAAAAAAAAGAAAACAGAGAGGGGAAAAAAAAAAAAAGCUUGGAAAAAAGGCGGAAAAAAGCCAAAAAAAAAAAAAAAGGAAAAAAGCCUCAAAAAAAAGUAGUAAAAAAAAAAAAAAAACAAACAGAUUGACACAAAAAAAAAAAAUUUACCAAAAAAGGUGGAAAAAAACAGAAAAAAAAAGCCUAAAAAAAAAAAAAUGGAUGAAAAAAAACUUGAAAAAAACGUAAAAA'
p400
aF0.8923884514435696
aa.