(lp0
(lp1
S'Simple Hairpin'
p2
aS'(((((......)))))'
p3
aS'GAUACAAAAAAGUAUC'
p4
aF1.0
aa(lp5
S'Arabidopsis Thaliana 6 RNA - Difficulty Level 0'
p6
aS'(((((((....(((...........)))((((((((..(((((((((((((((((((...(((((......))))).)))))).)))))))))))))..))))))))..)))))))'
p7
aS'GAUAUACGAAUGACAAAAAAAAAAAGUCGAUAUAUCAAGAUAUAUAUAUAUGUAUACAAAGAUACAAAAAAGUAUCAGUAUAUAAUAUAUAUAUAUCGAGAUAUAUCAAGUAUAUC'
p8
aF1.0
aa(lp9
S'Prion Pseudoknot - Difficulty Level 0'
p10
aS'((((((.((((....))))))).)))..........'
p11
aS'GAUAUCAGAUCAAAAGAUCGAUAAUCAAAAAAAAAA'
p12
aF1.0
aa(lp13
S'Human Integrated Adenovirus - Difficulty Level 0'
p14
aS'((((((((((((((.((((((...........((((((((((((.....((((((((....(((((((((((((........))))))))))....))))))))....))))))....)))))...((((((.......))))))))))............)))))).))))....))))))...))))...'
p15
aS'CAUGGCUAUAUAGCGUAGAUCGAAAAAAAAAAGAUCCUAGACCGAAAACGCUAUAUCUAAAGGGGAGUAUAUACAAAAAAAGGUAUAUACUUAUUACCCGAUAUUUUAAGCCGGAAAUUUUAGAAAUAUAUCUAAAAAUGAUAUAGAUCGAAAAAAAAAAAGAUCUGAGCUAAAAAUAUAGCAAAUAUGAAA'
p16
aF1.0
aa(lp17
S'The Gammaretrovirus Signal - Difficulty Level 0'
p18
aS'..(.(..((((((....))))))..).)......((((..(((.(((((((((....)))))....)))))))))))..((((((((....))))))))..'
p19
aS'AAGGGAAGAUAUCAAAAGAUAUCGACGCAAAAAAGAUCAAGACAGAUCCUAUCAAAAGAUAGAAAAGAUCGUCGAUCAAGAUAUAUCAAAAGAUAUAUCAA'
p20
aF1.0
aa(lp21
S'Saccharomyces Cerevisiae - Difficulty Level 0'
p22
aS'(((((((((((........)))).((...............))....(((((.......))))))))))))....(((((((..((((........))))(((.............)))....(((((.......))))))))))))....(((((((..((((........))))((((((.......))))))....(((((.......))))))))))))....(((((((..((((........))))((((((.......))))))....(((((.......))))))))))))....(((((((..((((........))))((((((.......))))))....(((((.......))))))))))))....'
p23
aS'GAAAUUCGUCCUAAAAAAUGGAUAGGGAAAAAAAAAAAAAACCAUAAUAUACGAAAAAAGUAUAGAAUUUCAAAAACUGUUCAUCUACUAAAAAAUGUAGUGCGAAAAAAAAAAAAGCAAAAACAUACGAAAAAAGUAUGGGAUAGUGAAUCAUCUAGUUGGACUAAAAAAUGUCUGAUACCAAAAAAGGGUGUCGAAAGAUACGAAAAAAGUAUCCUAGAUGUAAUGAUAAGGUUCUACAAAAAAAGGUAGUAUAUCGAAAAAAGAUAUAGAAUUAUACGAAAAAAGUAUACCUUAUCUAAAGUUAGAUUUCUACUAAAAAAUGUAGUAUUUUGAAAAAAGGAAUAGAAAUGUACGAAAAAAGUACAGUCUGACAAAA'
p24
aF1.0
aa(lp25
S'Fractal 2'
p26
aS'.....((((((((...((((((((((..((((..........))))..((((..........))))..((((..........))))..))))))))))...((((((((((..((((..........))))..((((..........))))..((((..........))))..))))))))))...((((((((((..((((..........))))..((((..........))))..((((..........))))..))))))))))...)))))))).....'
p27
aS'AAAAUGACAUAUCUAUGAUAUAUACAGAAUGCGAAAAAAAAAGUAUAUGAGUGAAAAAAAAAACUCUACAUCGAAAAAAAAAGGUGGAUGUAUAUAUCUAUGAUAUAGGGCGUGACUUAAAAAAAAUAGUCUGUGGUUCAAAAAAAUGCUAAAUUGGGAAAAAAACACUAGGAGCCCUAUAUUUAGACUACUUAGUGGCAAUGAAAAAAAAAGUUGAAGAACAAAAAAAAAGGUUCAAGAGCGAAAAAAAAAGCUCGAACUAGGUAGUAAUGAUAUGUCUAAAA'
p28
aF1.0
aa(lp29
S'G-C Placement'
p30
aS'((((...)))).'
p31
aS'GAUCAAAGAUCA'
p32
aF1.0
aa(lp33
S'The Sun'
p34
aS'(((.(((((((...))))..))))))...(((.(((((((...))))..))))))...(((.(((((((...))))..))))))...(((.(((((((...))))..))))))...(((.(((((((...))))..))))))...(((.(((((((...))))..))))))...(((.(((((((...))))..))))))...(((.(((((((...))))..))))))...(((.(((((((...))))..))))))'
p35
aS'CGCAGACUUAGUAUCAAGUAGUCGCGAAUCGGAGAGAUUCAAGGGAUGAUCUUUGUAGUCCAUAUGCACGAAGUGUUAGUAGGGAAAGUCAAUCGUAAAAGUUAUAAGAUGGCGGAGUCAGAGCCCAUCUUGUGUAUACGACAAAGGAAGAUGCUGGAACAGCUAAUCAUCUGAUAGAGAAAACGAAGGGUUGAUACCUCAAACAUCAAAUUACAAGAUAUUAGUCAUCGAACCCAGAUACAAGAAUUAUUAAUCGGG'
p36
aF0.9612403100775194
aa(lp37
S'Frog Foot'
p38
aS'..........((((....))))((((....))))((((...))))'
p39
aS'AAAAAAAAAAGAUCAAAAGAUCGAUCUAAUGAUCGGUGAAGCACC'
p40
aF1.0
aa(lp41
S'InfoRNA test 16'
p42
aS'((((((.((((((((....))))).)).).))))))'
p43
aS'GCAUUUUCCCUUAUGGAAAUAUAAUGGCGUGAAUGC'
p44
aF1.0
aa(lp45
S'Mat - Martian 2'
p46
aS'((((....))))...(((((((..(((((((.......))))))))))))))...((((((((......(((((((.(((((((.......))))))))))))))...((((((((((((((.......))))))).)))))))......))))))))...((((((((((((((.......)))))))..)))))))...((((....))))'
p47
aS'GAUCAAAAGAUCAAAGAUAUACAAGAUAUACAAAAAAAGUAUAUCGUAUAUCAAAGAUAUAUCAAAAAAGAUAUACAGAUAUACAAAAAAAGUAUAUCGUAUAUCAAAGAUAUAUAUAUAUCGAAAAAAGAUAUAUAAUAUAUCAAAAAAGAUAUAUCAAAGAUAUAUAUAUAUCGAAAAAAGAUAUAUUAAUAUAUCAAAGAUCAAAAGAUC'
p48
aF1.0
aa(lp49
S'square'
p50
aS'((((((((((((((((((((((((((...))))))....)))))))....))))))....)))))))'
p51
aS'GAUAUACCUUAUCCUAUAUCCUAUACAAAGUAUAGAAAAGAUAUAGAAAAGAUAAGAAAAGUAUAUC'
p52
aF1.0
aa(lp53
S'Six legd turtle 2'
p54
aS'.....((...((....))...((....))...((....))...((....))...((....))...((....))...))....................'
p55
aS'AAAAAGCAAAGCAAAAGCAAAGCAAAAGCAAAGCAAAAGCAAAGCAAAAGCAAAGCAAAAGCAAAGCAAAAGCAAAGCAAAAAAAAAAAAAAAAAAAA'
p56
aF1.0
aa(lp57
S'Small and Easy 6'
p58
aS'(((((.....))..((.........)))))'
p59
aS'GCCGCUAAAUGCAACGGAAAAAAAACGGGU'
p60
aF1.0
aa(lp61
S'Fractile'
p62
aS'............((....))...((...((....))..((...((....))...))..((....))...))..((....))........................'
p63
aS'AAAAAAAAAAAACCAAAAGGAAAGCAAAGCAAAAGCAAGCAAAGCAAAAGCAAAGCAAGGAAAACCAAAGCAAGCAAAAGCAAAAAAAAAAAAAAAAAAAAAAAA'
p64
aF1.0
aa(lp65
S'Six legd Turtle'
p66
aS'.....((....((....))....((....))....((....))....((....))....((....))....((....))....))....................'
p67
aS'AAAAAGCAAAAGCAAAAGCAAAAGCAAAAGCAAAAGCAAAAGCAAAAGCAAAAGCAAAAGCAAAAGCAAAAGCAAAAGCAAAAGCAAAAAAAAAAAAAAAAAAAA'
p68
aF1.0
aa(lp69
S'snoRNA SNORD64'
p70
aS'((((((.....(((....(((...(((((.............)))))....)))..)))..))))))'
p71
aS'GAUAUCAAAAAGACAAAAGACAAAGAUACAAAAAAAAAAAAAGUAUCGAAAGUCAAGUCAAGAUAUC'
p72
aF1.0
aa(lp73
S'Chalk Outline'
p74
aS'.....((((.(((((....)).))).(((.(((....)))))).((((((....)).)))).(((((....))).)))))).......................'
p75
aS'AAAAAGAUCAGAUACAAAAGUAAUCAGACAGACAAAAGUCGUCAGAUAGCAAAAGCAUAUCAGAAACAAAAGUUAUCGAUCAAAAAAAAAAAAAAAAAAAAAAA'
p76
aF1.0
aa(lp77
S'InfoRNA bulge test 9'
p78
aS'(((((((.(.(.(.(((((((....)))))))))))))))))'
p79
aS'GAUAUACAGAGAGAGAUAUACAAAAGUAUAUCCCCGUAUAUC'
p80
aF1.0
aa(lp81
S'Tilted Russian Cross'
p82
aS'.....((((((((....))))((((.((((....))))(((((....))))).((((....))))))))((((....))))))))....................'
p83
aS'AAAAAGAUCGCGCAAAAGUGCGAGCAGAUCGAAAGAUCGAUACAAAAGUAUCAAAUCAAAAGAUUGCUCGACCGAAAGGUCGAUCAAAAAAAAAAAAAAAAAAAA'
p84
aF1.0
aa(lp85
S'This is ACTUALLY Small And Easy 6'
p86
aS'................................................................................................................................................................................................................................................................................................................................................................................................................'
p87
aS'AAAAAAAAAAAAAAAAAAAAAAAAAAAAAAAAAAAAAAAAAAAAAAAAAAAAAAAAAAAAAAAAAAAAAAAAAAAAAAAAAAAAAAAAAAAAAAAAAAAAAAAAAAAAAAAAAAAAAAAAAAAAAAAAAAAAAAAAAAAAAAAAAAAAAAAAAAAAAAAAAAAAAAAAAAAAAAAAAAAAAAAAAAAAAAAAAAAAAAAAAAAAAAAAAAAAAAAAAAAAAAAAAAAAAAAAAAAAAAAAAAAAAAAAAAAAAAAAAAAAAAAAAAAAAAAAAAAAAAAAAAAAAAAAAAAAAAAAAAAAAAAAAAAAAAAAAAAAAAAAAAAAAAAAAAAAAAAAAAAAAAAAAAAAAAAAAAAAAAAAAAAAAAAAAAAAAAAAAAAAAAAAAAAAAAAAAAAAAAAA'
p88
aF1.0
aa(lp89
S'Shortie 4'
p90
aS'((....)).((....))'
p91
aS'GCUAAUGCAGGGAAACC'
p92
aF1.0
aa(lp93
S'Shape Test'
p94
aS'.....(.((((..(((((........)))))..(((.(((.(((((.....))))).((((....)))).))))))..)))).)....................'
p95
aS'AAAAAGAGAUCAAGAUACAAAAAAAAGUAUCAAGACAGACAGAUACAAAAAGUAUCAGUACAAAAGUACAGUCGUCAAGAUCGCAAAAAAAAAAAAAAAAAAAA'
p96
aF1.0
aa(lp97
S'The Minitsry'
p98
aS'(((.....(((.....(((.....(((.....(((........))).))).))).))).)))'
p99
aS'GGCCAAAACCCCAAAGGACGUACAGCGACAAACUGAAAAAAAACAGACGCAGUCAGGGAGCC'
p100
aF1.0
aa(lp101
S'stickshift'
p102
aS'..((((((((.....)).))))))..'
p103
aS'AAGAUAUCCCAAAAAGGAGAUAUCAA'
p104
aF1.0
aa(lp105
S'U'
p106
aS'.....(((((.(.(.((.(.(((((((((....))))))))))))))))))).....'
p107
aS'AAAAAGAUACAGAGAGCAGAGAUAUAUACAAAAGUAUAUAUCCGCCCGUAUCAAAAA'
p108
aF1.0
aa(lp109
S'Still Life (Sunflower In A Vase)'
p110
aS'...((((..(((((.....)))))..(((((...)))))..(((((.....)))))..(((((...)))))..(((((.....)))))..(((((.....))))).((((((((((((((((((((((((((((......))))).(((((.............((((.........................................)))).............)))))(((((....))))).)))))))))))))))))))))))..(((((.....)))))..(((((.....)))))..(((((.....)))))..(((((.....)))))..(((((....)))))..(((((.....))))).))))...'
p111
aS'AAGGGUCAACUAUAAAAAGUAUAGAACUGUUAAGGACAGAACUAUCGAAAAGAUAGGGAACUCAAAGAGUUAAGUCGCAAAAGGCGACGCGAAGCUAACUGUUUCCGAUAUAGAUAGAGAUAUAUAUCCGGUUUAAAAAGAAACCAGUGACAAAAAAAAAAAAUUAUCAAAAAAAAAAAAAAAAAAAAAAAAAAAAAAAAAAAAAAAAAGAUGUAAAAAAAAAAAAGUCACGUUACAAAAGUAACAGGAUAUAUAUUUUUAUUUAUAUCCAGAUAUAAAAAAUAUCAGCUAUCUAAAUGAUAGAACUAUCAAAAGGAUAGAAGUAUGAAAAACGUACAACUGUCAAAGGACAGAGCUAUCGAAAAGAUAGAGACCAAA'
p112
aF1.0
aa(lp113
S'Quasispecies 2-2 Loop Challenge'
p114
aS'.....((((((((..((((....))))..)))).((((..(...)..)))).((((..(..(((.....)))..)..))))))))....................'
p115
aS'AAAAAUUACGAAUUAUUUGUAAUCAAAGUGUUCACCAGAACGAAGGGCUGGGGUUUGAUGAUCCAAAAAGGAAAAGAAAAUGUAAGAAAAAAAAAAAAAAAAAAA'
p116
aF1.0
aa(lp117
S'Corner bulge training'
p118
aS'.(((((((((((...)))))....)))))).'
p119
aS'AGAUAUCGAUACAAAGUAUCAAAAGAUAUCA'
p120
aF1.0
aa(lp121
S'Spiral'
p122
aS'.....((((.((((((.(((.(((((.((((.((((.((.((.((.((.((.((.....)))))))))))))))))))))))))))))))))))))).....'
p123
aS'AAAAAGAUCAGAUAUCAGACAGAUACAGAUCAGAUCAGCAGCAGCAGCAGCAGCAAAAAGCGCGCGCGCGCGAUCGAUCGUAUCGUCGAUAUCGAUCAAAAA'
p124
aF1.0
aa(lp125
S'InfoRNA bulge test'
p126
aS'.............................((((......((((....((((...((((..((((.((((.....)).)).)).))..)).))...)).)).....)).))......)).)).'
p127
aS'AAAAAAAAAAAAAAAAAAAAAAAAAAAAAGACCAAAAAAGACGGAAUGAGCUAAUGACAAGGCCGGCCGAAAAGCGAGCAGGACCAAGUACGGAUGUAUCUAAAACGAUCGAAAAAGGAUCA'
p128
aF1.0
aa(lp129
S'Worm 1'
p130
aS'.......(.(.(.(.(.((.((.(....).)).)).).).).).)'
p131
aS'AAAAAAAUAUAGUUUGGUUCGUAAAAAAUGACUGAUCCACCGGAA'
p132
aF0.9111111111111111
aa(lp133
S'just down to 1 bulge'
p134
aS'.....((((.(((((....))))).(((....))).)).))....((((.(((....))).(((....))).))))....................'
p135
aS'AAAAAGAGCGGAUUCAAAAGGGUCAGACGAAAGUCAGCAUCAAAAGAUCAGACAAAAGUCAGAGAAAACUCAGAUCAAAAAAAAAAAAAAAAAAAA'
p136
aF1.0
aa(lp137
S'Iron Cross'
p138
aS'.(((.(((...(((.(((...))).(((....))).)))...(((.(((....))).(((...))).)))...(((.(((....))).(((...))).)))...))).(((...))).)))..'
p139
aS'AGACAUACAAAUCCAUGGGAACCGGGGCAAAAGCCGGCGAAAAACAUUGAAAGCGAACCAUAGUACGGGCAAAGCGUGUUAAAAAACUGACGCAGGGACGCAAAGUAGUAGUAUCAGGGUCAA'
p140
aF0.9512195121951219
aa(lp141
S'loops and stems'
p142
aS'.....(((((((...((((...((((...((((.........(((((............)))))...))))....((((..........))))...))))...(((........)))...))))..((......))...))))))).....'
p143
aS'AAAAAUAGAGACGAGCCGCAAAGCCCAUAGAUCAAAAAAAAAGAUUCAAAAAAAAAAAAGAAUCAAGGAUCGAAAGAACUAAAAAAAAUGUUCAAAGGGCAAAGACAAAAAAAAGUCAAGGUGGAAGGAAAAAACCAAAGUUUCUAAAAAA'
p144
aF1.0
aa(lp145
S'Water Strider'
p146
aS'.....((.((..(((((.(((....)))(((....)))))).....((((((....)))(((....))).)))))..)).)).....................'
p147
aS'AAAACGCUAUAUUAUACGUAUGAAAAUCGUGUAAGUACAUGAAAAAGGCCUCUAAUGCGAGUUAAUACACAUCGAUCGUAGUUAAAAAAAAAAAAAAAAAAAA'
p148
aF0.941747572815534
aa(lp149
S'The Turtle(s) Move(s)'
p150
aS'...((....))....(((((((((.........)))))))))....((((.....)))).....(((....)))...(((((.......)))))....(((...((....)).....(((....)))....((((((.......))))))....(((....))).....((((((....(((.......)))..(((........)))...(((((......)))))...((((.....))))..)))))).........((....)).....((....))......(((((..........)))))......)))'
p151
aS'AAACAAAAAUAGAAACUUUGUCUCAAAAAAAAGGAGACGGAGGAAAGCGGAAACGCAGUGAAAGGACUAAUGAUAAUCCAGCGAAAAAAGCUGGUAAAGCCAAAUCAAAAGAGAAAUCGAAAAACUGUAAAGAAAUCGAAAAAAGAUUUCAAAUGCCGAAAGGCUAAAUCAUACGAAAAACCCAAAAAAGGUAUCCCAAAAAAAAGAGUAUCUAGCAAAAAAGCUAGUAGCUAGGAAAACUAGAACAUAUGUAAAAAAAAGCUAAUCCGAAAGACAAAAGGAGAAAAUGUCCGAAAAAAAAAGGACACAAAAAUGC'
p152
aF0.9873417721518988
aa(lp153
S'Adenine'
p154
aS'(((((.((((((.((((((.((((((.((((((.((((((....((((((......)))))).)))))).(((((...(((((((...)))))))))))).)))))).((((((((((((...)))))))...))))).))))))....))))))....))))))....)))))'
p155
aS'GAUACAGAUAUCAGGUGUCGGUGAUUAUCUGUCAGAUAUGAACAGAUAUCGAAAAAGAUAUCACAUAUCGGAUACAAAGAUAUACGAAGUAUAUCGUAUCAGACGGAGGAUAUAUUUAUCAAAGAUAGAUUUAGUAUCAAAUCGCAGUAGAUACCAACAGAUAUCAACAGUAUC'
p156
aF1.0
aa(lp157
S'Tripod5'
p158
aS'..((((((((.....))))((((.....))))))))..'
p159
aS'AAGUGUAUCCAAAAAGGAUGAUCGAAAAGAUCACGCGA'
p160
aF1.0
aa(lp161
S'Shortie 6'
p162
aS'((....)).((....)).((....)).((....))'
p163
aS'GGAAAGCAUGGAAAUGGUAGAGCGUUAAUUAAUGU'
p164
aF0.8857142857142857
aa(lp165
S'Runner'
p166
aS'.....((((.((((.....((((...)))).))))...(((..((((((...)))...)))((((((...)))...))).)))...(((...(((....))).))).)))).....'
p167
aS'AAAAUGCUCAAUUGAAAAGAAUGAAGGAAUAGAAUAAAUAGAAGACGGCAAUCUUGUAGCGAGCAAGACGUUAAACUGAGCAAGAAGUCAAGAUCUAAUCGCACCCGGAGCAAAAA'
p168
aF0.9137931034482759
aa(lp169
S'Recoil'
p170
aS'.....(((((..((..((..(((..(((..((..((...)).)).))).))).)).)).))))).....................'
p171
aS'AAAAAGAUACAAGCAAGCAAGACAAGACAAGCAAGCAAAGCAGCAGUCAGUCAGCAGCAGUAUCAAAAAAAAAAAAAAAAAAAAA'
p172
aF1.0
aa(lp173
S'[CloudBeta] An Arm and a Leg 1.0'
p174
aS'.....(((.(((((....)).)))(((.((....))))).)))....................'
p175
aS'AAAAAGACAGAUACAAAAGUAAUCGUCAGCAAAAGCGACAGUCAAAAAAAAAAAAAAAAAAAA'
p176
aF1.0
aa(lp177
S'[CloudBeta] 5 Adjacent Stack Multi-Branch Loop'
p178
aS'(((((((((....))))(((((....)))))(((((....)))))((((....))))))))).'
p179
aS'GAUACGAUCAAAAGAUCGCUACAAAAGUAGCGAUACAAAAGUAUCGCUCAAAAGAGCGUAUCA'
p180
aF1.0
aa(lp181
S'Triple Y'
p182
aS'.....((((((((((((....))))((((....))))))))((((((((....))))((((....))))))))))))....................'
p183
aS'AAAAAUAGGAGAGGUUUAAAGAAACGAUGAAAGCAUCCUCUGGUAGCUUAAAGAAGCGAUCUAAUGAUCUACCCCUAGAAAAAAAAAAAAAAAAAAA'
p184
aF1.0
aa(lp185
S'Misfolded Aptamer'
p186
aS'((((......(((((...))).((....)).........)).....))))'
p187
aS'GAUCGAAAAAGGCGCAAAGCGAGCUAAUGCAAAAAAAACCCGAAAAGAUC'
p188
aF1.0
aa(lp189
S'Flower power'
p190
aS'.....((((((((...)))).((((((((...))))..((((...))))..((((...)))))))).((((...))))))))....................'
p191
aS'AAAAAGAUCGGACAAGGUCCAGAGCGACCAAAGGUCAAGAUCAAAGAUCAACAGUAAAACUGGCUUAGUUCAAAGAACGAUCAAAAAAAAAAAAAAAAAAAA'
p192
aF1.0
aa(lp193
S'Kudzu'
p194
aS'.....(((.(..(.(((((.((((.((...)))).))))((((((...)).))))..(((...)))...))).)..).)))....................'
p195
aS'AAAAAGACGGGAGAGACCCAGACCAGCAAAGCGGAUCGGGAUAGGAAACCAUAUCAAGACGAAGUCAAAGUCGCGACGGUCAAAAAAAAAAAAAAAAAAAA'
p196
aF1.0
aa(lp197
S'"1,2,3and4bulges"'
p198
aS'.....((((.(((((....))....))).(((....))).)).)).....((((.((((....))...)).(((....))).))..))....................'
p199
aS'AAAAACUAUAACACCAAAAGGAAAACGUGGAAAGCUUUCAAACCGAAAAGGUUGUGGAGAAAUGUGAUUGGCGAGAAAUUAAUAAAACAAAAAAAAAAAAAAAAAAAA'
p200
aF0.9074074074074074
aa(lp201
S'medallion'
p202
aS'((((((.((((((....)))))).(((....))).(((....))).((((((....)))))).(((....))).((((((....)))))).(((....))).(((....))).((((((....)))))).(((....))).((((((....)))))).(((....))).(((....))).((((((....)))))).(((....))).((((((....)))))).(((....))).(((....))).((((((....)))))).(((....))).((((((....)))))).(((....))).(((....))).((((((....)))))).))))))'
p203
aS'UAUAGCUGAAAUCAAAAGAUUUCCCUGUAAUCAGCGACGAAAGUCUUAUAUCAAAAGGUAUACUAGAAAACUAUGUUAUCAAAAGAUAGCGGUAAAAAUGCAGACAAAAGUCGGAGAUUGAAAGAUCUCAGCCAAAAGGUCGAUAUCAAAGGAUAUCACACAAAAGUGGGCCGAAAGGUGGAUAUUAAAAAAUAUCACAAGAAAUUGAGUUGUCGAAAGAUAGCAGACAAAGGUCAGGUAAAAACUAGAUAGCAAAAGUUAUCAGGAAAAGUCCAUACAUAAAAAUAUGUAGGCUAAAAGGUAGACAAAAGUCCGAUAUCAAAAGAUAUCUGUUAUA'
p204
aF1.0
aa(lp205
S'[RNA] Repetitious Sequences 8/10'
p206
aS'((......((......))......(((......((......))......((......))......)))......)).....'
p207
aS'GAUAAAAUUGUAAAAUGAUAAAAAGCUAAAAAAUAAAAAAGUAGAAAAGGGAAAAAGUCAAAAAUGUCGAAAAUGCAAAAA'
p208
aF0.9506172839506173
aa(lp209
S'Documenting repetitious behavior'
p210
aS'.......((.........((.........((.........((.........((.........((.........((.........((.........((.........((.........((.........((.........((.........((.........((.........((.........((.........((.........)).........)).........)).........)).........)).........)).........)).........)).........)).........)).........)).........)).........)).........)).........)).........)).........)).........))......'
p211
aS'AAAAAAAGAGAAAAAAAAACAAAAAAAAAUCAAAAAAAAGGAAAAAAAAAGCUAAAAAAAAAGGAAAAAAAAAAGAAAAAAAAAGCAAAAAAAAACGAAAAAAAAAGAUAAAAAAAAUAGAAAAAAAAUCUAAAAAAAAGGAAAAAAAAUACAAAAAAAAAAGUAAAAAAAUCCGAAAAAAAUUGGAAAAAAAAGAAAAAAAAAAUCAAAAAAAAGCCUAAAAAAAAGGGAAAAAAAUCAAAAAAAAAAACUAAAAAAAAUCAAAAAAAAUGAAAAAAAAAAGAGAAAAAAACGAAAAAAAAAAUGUAAAAAAAAGCAAAAAAAAGCUAAAAAAAAAUCAAAAAAAAAGGAAAAAAAAAUCAAAAAAAAAGAGAAAAAAAAGUAAAAAAAAAUCAAAAAA'
p212
aF0.97
aa(lp213
S'7 multiloop'
p214
aS'(((((((((....)))))(((((....)))))(((((....)))))(((((....)))))(((((....)))))(((((....)))))))))'
p215
aS'GGUAGAGUGGAAACAUUUGAUGCUUAUGCAUCUCAAAAAAGUUUGAAUGCAGAAAUGCGUGGAUUAAAGGAUCUAGCUCUAAUGAGCUUACU'
p216
aF1.0
aa(lp217
S'Kyurem 7'
p218
aS'.....((((((((((....)))(((....((((.(((.....))).((((((......)))...))))))))))))).))))....................'
p219
aS'AAAAAGUAUUAAGACAAACGUCAUGAAAAUCGAUCAGUAAAUUUACACUCCUAAAAUGCUUCAAUUUUUCGCGGAUAGGCACGAAGAAAAAAAAAAAAAAAA'
p220
aF0.8921568627450981
aa(lp221
S'JF1'
p222
aS'(((((((((((.(((((..(((((....((((((..(((((...(((((..((((((.((((((((((((((....))))))))))))))..(((....))).(((((((((....)))))))))..(((((....))))).)))))).))))).))))).))))))...((((((((.....))).)))))..((((((((((((((((((((((((....)))))))))))))).))))))))))...(((((......)))))((((((((((....))))))))))...((((....))))..)))))..))))).((((.(((.(((....)))))))))).(((((((((....))))).)))).)))).))).))))...'
p223
aS'GAUAGACAUACACUAUCGAGAUACAAAAGAUAUCAAGAUACAAAGAAUCAAGAUAUCAGAUAUAUAUAUAUCAAAAGAUAUAUAUAUAUCAAGACAAAAGUCACUAUAUAUCAAAAGAUAUAUAGAACUAUCAAAAGAUAGAGAUAUCAGAUUCAGUAUCAGAUAUCAAAGAUAUAUCAAAAAGAUAAUAUCAAGAUAUAUAUACAUAUAUAUAUAUCAAAAGAUAUAUAUAUGUGAUAUAUAUAUCAAAGAUACAAAAAAGUAUCCUAUUUAUACAAAAGUAUAGAUAGUAACUAGGAAACUAGAAGUAUCAAGAUAGAGAUCAGAUAGACAAAAGUCAUCGAUCAGAUAAAUACAAAAGUAUUAUAUCAGUAUAGUCAUAUCAAA'
p224
aF1.0
aa(lp225
S'multilooping fun'
p226
aS'(((.(..((.((....)).((....)).))..).(....).)))'
p227
aS'GUUAAUGCCAAUUAAAGUGUGGAAAUAAGAAUUGAAAAAGAAGC'
p228
aF0.8181818181818182
aa(lp229
S'Multiloop...'
p230
aS'((((.((((.(((....))).(((....))).(((....))).(((....))).(((....))).(((....))).)))).(((((......)))))(((....)))))))'
p231
aS'GAUCAGACCAGAAGAAAUUCACAGAAAACUGAGACGAAAGUCACGCAAAAGCGAGGCAAAAGCCAUUCGAAAGAAGGGUCAGAUACAAAAAAGUAUCGACAAAAGUCGAUC'
p232
aF1.0
aa(lp233
S'hard Y'
p234
aS'.....((((((.((((((((....))))))).)))((((((((((....)))))))))))))).....'
p235
aS'AAAAGGUAGCAAAUGAUUUCGAAAGAGAUCUCCUGGAGAUACGUCGAAAGACGUAUUUUUUGCAAAAA'
p236
aF0.9705882352941176
aa(lp237
S'Mat - Elements & Sections'
p238
aS'.....((((.(...(.((((.(.((((.((.((((.((.(((....))).).)))))).).))))....).)))).)...).))))....................'
p239
aS'AAAACGAGUGCGAGCUGAGGAAAUAAUAAAAGGUCAGGUCUUGAAAGAGUCGUGAUUUAUCGUUGGAAGUCAAUCAGAAAGAACUCGAAAAAAAAAAAAAAAAAAA'
p240
aF0.9622641509433962
aa(lp241
S'Chicken feet'
p242
aS'.....((.((.((...)).((....))...)))).((.((.((...)).((....))...)))).....'
p243
aS'AAAAAUGACUUAGGGUUGUGUGAAAGUAAAGGAGGACAGGGUGAAGUAAACGAAAGUGAAAUGAAAAAA'
p244
aF0.855072463768116
aa(lp245
S'Bug 18'
p246
aS'.((.((.((.((..((..((.((...))..)).)).))..))..))....)).'
p247
aS'GGCUGAGGCACUAAGGAAGAUGACAGAUAAGCCUUGUGGGGGGGUUAAAUGCA'
p248
aF0.9245283018867925
aa(lp249
S'Fractal star x5'
p250
aS'.....((((((((..((((....))))..((((....))))..((((....))))..((((....))))..)))))))).....((((((((..((((....))))..((((....))))..((((....))))..((((....))))..)))))))).....((((((((..((((....))))..((((....))))..((((....))))..((((....))))..)))))))).....((((((((..((((....))))..((((....))))..((((....))))..((((....))))..)))))))).....((((((((..((((....))))..((((....))))..((((....))))..((((....))))..)))))))).....'
p251
aS'AAAAAACUGAAUGAAAAUCAAAAGAUUGACAACAAAAGUUGAACUUAAAAAUGAGAACUGCAAAAGUAGAACAUUCAGUAAAAAUGUAGAUGAAGAUCGAAAGAUCAACUACAAAGGUAGCACUACAAAAGUAGACGGGACAAGUCUCAACAUCUAUAAAAAAGAAAUAUGAGGUUCAAAAGAACAACUGUAAAAGCAGAGCUAUAAAAGUAGAACUACAAAAGUAGAACAUAUUUCAAAAAGAGGUAGGAAGAUGAAAACAUCAAUGAAAAAAUUCAAACCACUAAUGUGGAACAAAAAAAUUUGGACUUAUCUCAAAAAGAUUUAUUAAGAUCAAAGGAUCGACUAGAAAACUGGAACUGCAAAAGCGGGACUACGAAAGUAGAAGAUAGAUCAAAAA'
p252
aF1.0
aa(lp253
S'Crop circle 2'
p254
aS'((...((....((.....((.........((..............................))...............)).........)).......))....))....'
p255
aS'UGGUUGCAAAUCUUAAAGGUGAAAAAAAGGUGAAAAAAAAAAAAAAAAAAAAAAAAAAAAAGCAAAAAAAAAAAAAAAAUAAAAAAAAUGAUAAAAAGGCUAAAUAAAAA'
p256
aF0.9272727272727272
aa(lp257
S'Branching Loop'
p258
aS'.(((((........)((((....))))..)))).......'
p259
aS'AGAUUGUCAAAAAUCAUCUAACGAGAUCGAAUCAAAAAAA'
p260
aF0.95
aa(lp261
S'Bug 38'
p262
aS'.((.((.((..((.(...).)).))..))....)).'
p263
aS'AAAGUGGAGAAAUUGAAGUUAGGCUAACAAAGACUG'
p264
aF0.9444444444444444
aa(lp265
S'Simple Single Bond'
p266
aS'......(......((((.....))))......)......................'
p267
aS'AAAAAACGAAAAAGGUCUAAAUGACUGAAAAAGGAAAAAAAAAAAAAAAAAAAAA'
p268
aF1.0
aa(lp269
S'Taraxacum officinale'
p270
aS'((((....).))).((((....).))).((((....).))).((((....).))).((((....).))).((((....).))).((((((((((((((((((((((...)))).))))))).(((((..((((((((((..(((((((...))))))).))))))))))((((.((((((...)))))))))))))))...))))))))))).((((....).))).((((....).))).((((....).))).((((....).))).((((....).)))'
p271
aS'AUGCAAAAUUCAUAAAUUAAAGAAGUUGUAAAAAAGUGGUCAGGUGAAAAGAACCCCUGUAAAUAACAGCUAAGUAAUUAUUAGGAUUCAUAUUCGAUUUGAAGUCAAGGGUUGUUAGGUCUGCUAUUUCUAGAUGUGUGAGAUCUAAGAAUUAGAUUGGUACGUUUGGGUUCAGAUUUUGAAAAGAUCGAACAUAGCUAAGGAUAUGGAUCGACGCAAAAGCCGCAUGGCAAAAGAUAGAAUGAGAAAAUAGUGCAUCAAAGGAAUGACACGAAAAGACUG'
p272
aF0.851063829787234
aa(lp273
S'Headless Bug on Windshield'
p274
aS'.((.((.....(((((...((.(((.........................))).))...))).))...)).)).(((..(((..((.......((....)).......)))))......))).(((((.......(((..((..(((..((.(((...............)))..))..)))..)).)))..))..))).'
p275
aS'AAUCCCAAAAGUGGUCAAACCUAGUAAAAAAAAAAAAAAAAAAAAAAAAAAUUCGUGAAGAUCUGUAAUGGAAGAAUGGCACAAGUAAAAAAAUCAAAAGAGAAAACAAAGUGUAAAAAAUUAUUCGCAAAAAAGGAUAAACAAGUCAAGUAGUCGAAAAAAAAAAAAAAGGCAGGCAAGAUAAGCAGUCAACCUAAUAA'
p276
aF0.98
aa(lp277
S'Pokeball'
p278
aS'...(((((((....((..((..(((..((..((..((..((..((..((...)).))..)).)).))..)).))).)).)))))))))........(((((((....((..((..(((..((..((..((..((..((..((...)).))..)).)).))..)).))).)).)))))))))...'
p279
aS'AAAGUUAUAUAAAAGCAGACAAUUCAAGAGUCCAACGAAGUAGGCGAGGAAACCAGCAAGCACGGGGUAUCGGAAAGUAGCGUAUAACAAAAAAAAGAUAGAUAAAAGCAAAUGAGACAAGAAAGCAGCCGAGAAAGCAGGCUAUGUAGCAAUCAGGGGCAAUCGGUCAAUGGCGUCUAUCAAA'
p280
aF1.0
aa(lp281
S'Variation of a crop circle'
p282
aS'....((....((....((....((..((..((...))..))....))......)).......)).........)).............'
p283
aS'AAAUACUAAGGCAAAUGGGAGGUCAGACAGUGUAAUGAGGCUAAGGCACUCAAUCUAAAAAAGCAAAAAAAAUGUUAAAAAAAAAAAA'
p284
aF0.9545454545454546
aa(lp285
S'Loop next to a Multiloop'
p286
aS'..((((((((.......(.((((((....)))))).(((((((....))))))).).......))))))))..'
p287
aS'AGUAUAUCAUGAAAAAAGGGGGAGCGAAAGUUCUCGUAUAUUAAAAGUGAUAUAACGAAAAAAGUGAUAUAAA'
p288
aF1.0
aa(lp289
S'Snowflake 4'
p290
aS'((((...))))(((((((....))(((((..(((((((....))(((((((((...))))..((((...)))))))))((....)))))))..(((((((....))(((((((((...))))..((((...)))))))))((....)))))))..(((((((....))(((((((((...))))..((((...)))))))))((....)))))))..(((((((....))(((((((((...))))..((((...)))))))))((....)))))))..(((((((....))(((((((((...))))..((((...)))))))))((....)))))))..)))))((....)))))))((((...))))'
p291
aS'GAGCGAAUCUCAUAUAUCAAAAGAAAUACUAGAUACGCGAAAGCCUAUCGAUCAAAGAUCAACUACGAAGUAGGAUGGGCUAAUGCGUAUCGAGACUCCCUAAUGGUAUACCUACAACUAAGAAGCCUUAUGUGCGUAUAGCAAAAGCUGGUCGGGUUACGCAAAAGGAAUACUGACGAAGAAAAAUUGCGCACAAAGUAUGCCAAAGGAGUAUGAAGAUAGUCAAAGGCUGGUCCUAGAAGUUAGAAGGACGAAGUUCGAUCACCGAAAGACUAUCGGGUGAAGCAAAAGCCUUUCUAAAUAUAUAGAAUUGCGAACCCAGAGAGGCAAAGGCUUUACAUGUAAGGCAAAGGUUAUCUCAUCAAGGAUC'
p292
aF0.8162162162162162
aa(lp293
S'Mat - Cuboid'
p294
aS'(..((....((..((....((..((....(..((..((....((..((..((....(..((..((..((....((..((..((..((....((..((..((..((..((....((..((..((..((..((....((..((..((..((..((..((....((..((..((..((..((..((....((..((..((..((..((..((......))..))..))..))..))..))))..))..))..))..))..))))..))..))..))..))..))))..))..))..))..))))..))..))..))..))))..))..))..))))..))..))..)))..))..))))..))..)))..))))..))))..)'
p295
aS'GAAGUAAAAACGAGGAAAAACAUUUAAAACAGUGAAUCAAAACAAGCAAACCAAAAAGCGGCAGCAAGCAAAACAAAGGAAACAGACAAAAGCAAGAAGGCAAGCAUGUAAAAGGAAAUAAUCGGGCAAGUAAAAGGUGUGAAGCUAACAAGAAAGCAAAAGCAAACAGGCGAUGGACCAACCAAAAGGAGGCAAGCGAUUAGGUAUUAAAAAAGUGUAGCAAAAAAGUAAGUAAUGGGAGGGGACAAAUCAAGUAAGCGCGACGAGGUAUGCAAUAAUCCACGAGUAAGAAAGUAACCAUUGCCAAGCAGCCAAGCGUAGUCGACCGCCGGCAAGCAACGCACGCAAUGAAGGGGAGCAAAGACUAUCGGAAGGGCGGC'
p296
aF0.8789473684210526
aa(lp297
S'Misfolded Aptamer 6'
p298
aS'......(((......((((..(....(((........)))....).....)))).......)))...........'
p299
aS'AAAAAACAGGAAAAACAUCUGCUACAGGCAAAAAAAAGUCGAAUGAAAAUGAUGGAAAAAACUGAAAAAAAAAAA'
p300
aF1.0
aa(lp301
S'Snowflake 3'
p302
aS'(((((....)).((((((....)))..((((.((((..(((....)))(((.((....))(((...)))((....)).)))(((....)))..)))).((((..(((....)))(((.((....))(((...)))((....)).)))(((....)))..)))).((((..(((....)))(((.((....))(((...)))((....)).)))(((....)))..)))).((((..(((....)))(((.((....))(((...)))((....)).)))(((....)))..)))).((((..(((....)))(((.((....))(((...)))((....)).)))(((....)))..)))).))))..(((....)))))).((....)))))'
p303
aS'GAGCCAAAAGGGGAGCGCAAAAGCGAAGGUCAGAUGAACUAAAAAUUUGUCAGAAAAAUCCUCUAUGAGCCAAAAGCGGUGUAGAAAAGUUAACAUCAGAUAGAGACAAAAGUCGCCAGCUAAUGCCUCAAGGAGGCAAAAGGAAAUUACGAAAGUAAAUAUCAGGUCAAGACAAAAGUCGUCAUUAAAAAAUGGGAAUCGCCAAAAGGAGAUCGCGAAAGUGAAGACCAAUUCUAGUUGAAAGGCAACUGCGAAAGCCUCUAUCAGUCAAAGGAUGUUUACGAAAGUAAUGAAUGACGCAAGACAAAAGUCGUCAUCAAAAUGCCUAAAGGACAAAAAUGAGAUGGCAAAGGCUAAGUGGAGACCAAGACAAAAGUCCUCAGCAAAAGCCUU'
p304
aF0.8804071246819338
aa(lp305
S'Hard Y and a bit more'
p306
aS'.....(((((((.(((((....)))).)))(((((.((..((((....))))..(((((......)))))..)).))))))))))...................._'
p307
aS'AAAAAGAUACCUUCAUAAGCAAAUUGGCAAGGAUGUACUAAAUGAAAGCAUUAAGAUACUAAAAUGUAUUGCGGUCAUCUGCCUAAAAAAAAAAAAAAAAAAAAAA'
p308
aF0.9716981132075472
aa(lp309
S'Mat - Lot 2-2 B'
p310
aS'((..(((..((((..((....((..((((....))....))..))))..))....))..))((..((..((..((((..((....((..((((..((....((....))))..))....))..))))..))((..((..((....))((..((((..((....((..((((....))....))..))))..))....))..))))..))..))..))((..((....((..((((..((....((....))))..))....))..))))..))))..))..)..))'
p311
aS'UCAAGCGGAUUUGAAUCAAAAGCAAGGGAAAAAGAAAAUUUGAGCGAAGCAAAACGAAAAGCUAAGCAAGUAAUGUCAAGUAAAAGCAAGAGUGAUGAAAAUCAAAAGGAAAAGCAAAAUCAAGCACUAGAGUACUUAAGUGAAACCCCAAGUGCAAUCAAAAACAAUGUCAAAGGAAAAAGGAACUGGAACUAAAAAUAAAGGAGACGAGUCGAGUCGGAUGAAAAGCAAGGUCAAUUAAAAGCAAAAGUGAGAGAAAAAACAAGCCAAAUAGCGAGUAACAGGG'
p312
aF0.8251748251748252
aa(lp313
S'Shapes and Energy'
p314
aS'......(.((((.((((....(...((((.(....).))))...)))))..((......((((....)))))).)))).).....................'
p315
aS'AAAAACGAUGAUUGAAUAAAAGUAAAUCCGGUAAUAAGUACGAUCAUACAGGGAAAAAAGUGAAAAGUCGGGUAGCUGGGAAAAAAAAAAAAAAAAAAAAA'
p316
aF0.9603960396039604
aa(lp317
S"Spiral of 5's"
p318
aS'(....(((((...(((((...(((((....(((((...(((((...(((((..(((((....(((((...(((((...(((((..(((((...(((((...(((((..(((((...(((((..(((((..(((((..(((((..(((((.(((((.((((((((((.....))))).....))))).....))))).....))))).....))))).....))))).....))))).....))))).....))))).....))))).....))))).....))))).....))))).....))))).....))))).....))))).....))))).....))))).....))))).....))))).....))))).....)))))....).....'
p319
aS'GGAAAGAUACAAAGAGACAAAGAUACAAAAGAUACAAAGAUACAAAGAUACAAGAUACAAAAGAUACAAAGAUACAAAGAUACGAGAUACAAAGAUACAAAGAUACAAGAUACGAAGAUACAAGAUACAAGAUACAGGAUACAAGAUACAGAUACAGAUACAUAUCAAAAAGAUAUAAAAAGUAUCAAAAAGUAUCAAAAAGUAUCAAAAAGUAUCAAAAAGUAUCAAAAAGUAUCAAAAAGUAUCAAAAAGUAUCAAAAAGUAUCAAAAAGUAUCAAAAAGUAUCGAAAAGUAUCAAAAAGUAUCAAAAAGUAUCAAAAAGUAUCAAAAAGUAUCAAAAAGUAUCAAAAAGUAUCAAAAAGUAUCAAAAAGUCUCAAAAAGUAUUGAAACAAAAA'
p320
aF1.0
aa(lp321
S'Campfire'
p322
aS'....((((..(((((..((((..((((.....))))((((((...))).)))))))((((((.((.((.(((((....)).)))))))(((((.((.((.((....))))))(((((.(((....)).))).)))..)).)))))).))))))))(((.(((.(((.((((....))))))))))((((((((...))).)).))).)))))))'
p323
aS'AAAAUAUGAAGAAAUUUUAACAAGUGAUAAAUUUACGAAAUUUAUGAUAUUCAUUCGAAAGGAGCAGCAGAUAUAAAGAUAACCGCGCCGUAAGGCUGCUGCUAAUGCGCGCUAUUCACGUGAAAAUACGGAAUGAAGUAAUGCAUAUUCAUGUCCUCGGUGAGACAAAGAAAAAUGUUGUCCGCGAAGGUGCUCUGUUACCAAUCAGAGCGUA'
p324
aF0.7850467289719626
aa(lp325
S'Anemone'
p326
aS'...((((((....))))))(((((....)))))((((((....))))))(((((....)))))((((((....))))))(((((....)))))(((((....)))))((((((....)))))).(((((....)))))((((((....))))))(((((....)))))((((((....))))))(((((....)))))((((((....))))))'
p327
aS'AAUGCCGUCAAAGAUCGGCUAUCUCAAUUGAUACCUGUGAAAGUGUAGGGAGACAAAGGUCUCAUUUAUAAAGGUAAAUCAUCUGAAAAGAUGGAGCGGAAAUGCUUGUAGAGAAAGCUUUGCAGUUAGAAGGCUAACCGAACGGACAUGUUCGGAAUCUAAUAAUUUUCCCUGAAAGAAGCGAGCAACUAAUGUUGCGCGGUCGAAAGAAAUU'
p328
aF0.9906542056074766
aa(lp329
S'Fractal 3'
p330
aS'.....((((.(((.((....))((....)).))).(((.((....))((....)).))).(((.((....))((....)).))).(((.((....))((....)).))).)))).....'
p331
aS'AAAAUGUACAAGGAGAAAAAACUUAAAAGAAUUUGCCGAUAUAAUAGGCAAAGGAAUGAGCACAGCAAAAACGUAAAGACUUGGGGACAGAAAAAACCUAAAAACGGGCGCGCUUAAAA'
p332
aF0.9327731092436975
aa(lp333
S'Kyurem 5'
p334
aS'.....((((((((((....)))(((....((((((((...(((.....)))))))(((......))).))))))))))..))))....................'
p335
aS'AAAAGGAGAGAGGGCGAAACACGAGAAAAAUACGAUAAAAUAUGAAAACUAAAUCUAAAAAAAGGUGUGAACGCUUGAAGUCUUAAAAAAAAAAAAAAAAAAAA'
p336
aF0.9423076923076923
aa(lp337
S'Snowflake Necklace ( or v2.0 )'
p338
aS'(((((((((((((((.(((((.((.....)).((.....)).((.....)).((.....)).((.....)).))))).(((.....))).(((((.((.....)).((.....)).((.....)).((.....)).((.....)).))))).(((.....))).(((((.((.....)).((.....)).((.....)).((.....)).((.....)).))))).(((.....))).(((((.((.....)).((.....)).((.....)).((.....)).((.....)).))))).(((.....))).(((((.((.....)).((.....)).((.....)).((.....)).((.....)).))))).)))))))))))))))'
p339
aS'GGUCGAUUCAUUUACAGGGAUUCCAAAAAGAACAAAAAGUGUUAAAAAAUGUCCGAAAAGUCGUAAAAAGAUAUCCCAGAUGAAAAAUCGUCUUGAGAGAAAAUAGCCAAAAAGGCCCGAAAAGGCACAAAAAGCACUAAAAAAGUAUAGGAGCGAAAAACGCAAACGCAGCAAAAAGCGUCCAAAAUGGAAAAAAAUUAGUAAAAGACGCCAAAAAGGAGCGUCAGUGAAAAACGCAAAUUAAGCAAAAAGGCCCAAAAAGGGCCAAAAAGGAGCAAAAAGUAUAGAGAAUAGUGAUCGGUGUAAAUCGCAGCAGGGGCAAAAAGCUCCAAAAAGAUCAAAAAAUGAUCAAAAAGGAGCUAAAUCAACUUGCAGUAGAUGGAUCGAUC'
p340
aF0.8817480719794345
aa(lp341
S'Methaqualone C16H14N2O Structural Representation'
p342
aS'.......((((.((((.(((.(((....))).(((.(((....))).(((.(((....))).(((.(((....))).(((......))).))).))).))).))).(....).)))).((((...(((.(((...((....))........))).(((.(((....)))(((....)))(((....)))))).)))...((((.(....).(((.(((.(((.(((.(((...(((....))).))).(((....))).))).(((....))).))).(((....))).))).((((((....)))(((....))).(((....)))))).))).))))...)))).)))).......'
p343
aS'AAAAAAAGAUCAGAUCGGGGAGACUAAUGUCUGAGUGUCAAAAGACUGCGACAGCAAACUGAUCCAGAGGAAACUCAUUCAAAAAAGGGAGGAGCGCUCUCGUGCUUAAACGAGAUCAGAUCAAGUAGAUAAAAUUUGAAAAGUAAAAAAAUUAAGUAAGGCGAAAGCCCUCUAAAGAGUCUAAAAAGGUACGCUAAAAGAUCGGACAGCAGAGAGAAAGAAAGAGAGUCUAAGAAAAAAUUCUGACACGCGAAAGAGAAGCAGCCAAAAGGCCUUCAAUCAAAGGGCAAUCACGAUACAAAGGGACGCAAAAGUGAUUCAAAAGGGGAGAUGCAGAUCAAAGAGCAGAUCAAAAAAA'
p344
aF0.8184357541899442
aa(lp345
S"Cat's Toy 2"
p346
aS'....((((((((....((..(...................)..(((...((....))...((....))........))).......))))))))))....'
p347
aS'AAAAGUGAUAGGAAAAGGGGUGAAAAAAAAAAAAAAAAAAAAGCACGAGACGAAAACAAAUAAAAAGAAAAAAAAAGGGAAAAAAAUAUUUAUGAAGAAA'
p348
aF0.94
aa(lp349
S'Zigzag Semicircle'
p350
aS'....(((((((((.((....))).)).).)))))....'
p351
aS'AAAUCAAGGACUACGGAAAGUCUAUGAUAAUGUGUAAA'
p352
aF0.9473684210526315
aa(lp353
S'Short String 4'
p354
aS'......((.((..((..(...(.((.((....))))..)...(.((..((....))..))..)...).))..)))).....................'
p355
aS'AAAAAAACACGAGACGGGUAAUUCGGUGAAAACGUGUUAGGUUCGCAGUUAAAGGAAGGCGUCUAUAAGAAGCAGUGAAAAAAAAAAAAAAAAAAAA'
p356
aF0.9381443298969072
aa(lp357
S'Gladius'
p358
aS'((....))..(...(...(..(.(..(...(((.(((...((((....)))).((((((.((((((.((((((.((((((.((((((((((.((((((.(((((.((((.((((..((((...)))).))).)))))).))))).)))))).)))))))).)))))).)))))).)))))).))))))).)))...(((.(((((.(..((((.(..((((.(..((((.(..(((((((.((((((.(((((.((((((.(((.((((((....))))))..)))).)))).))))).)))))).)))))))).)..)))).)..)))).)..)))).)..))))).((((....))))...))).)))...)..).)..)...)...)..((....))'
p359
aS'ACAAAGACAACAAAUAAUGAAAUGUAGAAAGAUAAGUAAAGGUCGAAAGACUGGAUAUCACCUAUCACAUAACAUAUAUCAUAUAUAUAUGGGGUAUCAGAUAAAGAUCAAAUCGUGAUCGAAGAUCAGAUCCGAUCGAUAUCGAGUAUCAAAUAUAUAUCGGAUAUUGGAUAACGGAUGUUCGAUAUUGGCCGAGCAUGCUUACAGUUCAACUCAAGAUCAUAAGAUAAGAAGAUUUACACAUAUCAUAUACAGAUUCCAAACGGAUAUCAAAAGAUGUCAAGUUGUAAAUGCGUAUUCGAUAUCCGUAGAUCGCGGUAUCAAAAGAUCACAGGUUGCCGAGUAGUGGACUUAAUAGUCAAAGAAAAUCAAGAAUCUAAACUAAGAAGGACCGGAAAGG'
p360
aF0.875
aa(lp361
S'Thunderbolt'
p362
aS'((..(((((........(.((..((.(.....(....).((((((((.........((......((((.....))))......))...((..((.......(..(......)..)..((..((.....((....)).((((.....(((.....(..((.(...).))..).....))).((((...(.......(..(.((...)).)..).......)...))))........)))).....((((((...)))))).))..))...........))..)).........(..((((....))((((((.....(........).....))))))..))..)...))))))))........).))..)).).....(.......).)))))..)).'
p363
aS'GCAGGAUACAAAAAAAAGAGCAUGCAGGAAAUAAAAAUGGAUAUAUUAAAAAAAAAACAAAGAACCUCGAAAAGGGGAAAAAAGUGAAGUCAACAAAAAAAGAAGAAAAAACGACAAGCAAUAAAAAAGCAAAAGCUGGGGAAAAUGAAAAAAAGGAGGAGAAACGGGAACAAAAAGACUGAUUAAUGCCAAAAUGAAGUACUAUCCAAAACUAAAAAAUUACGAUCAAAAAAACCAUCAAAAAGAAUUCAAGGAAUUCAUAAAACAAAAAAAAAAAGAAAGCAAAAAAAAAGAAGAGCAAAGGCCUAGAGUAAAACAAAAAAAAGGAAAUUUCUAGAAUCGACGAAGAUAUAUCAAAAAAAACGGCUAGCGCGAAAAGAAAAGAACAGUAUCAAGCA'
p364
aF0.9195979899497487
aa(lp365
S'Mutated chicken feet'
p366
aS'.......((.((.((....)).((...))...)))).((.((.((....)).((...))...)))).((.((.((....)).((...))...)))).......'
p367
aS'AAAAAAAACACAAGAAAAAUGAGCGAAGUAAAGGGUAGGACCCUGAAAGUAUUGAAACAUGACAAUGGAAGCAUCAAAACAAGUAAAACAAAGGGGAAAAAAA'
p368
aF0.9223300970873787
aa(lp369
S'Chicken Tracks'
p370
aS'........(((((((((((....))))..((((....))))..((((....)))))))))))..(((((((...))))..((((...))))..((((...))))))).........'
p371
aS'AAAAAAAAUCUAUACGGACGAAAGUUCAGAAUCAAAGGAUUAAUAUCAAAGGAUAGUAUAGGGAGUCGCUCAAGGAGCAAGAGAAAAUCUCAAGGUGUAUCAUCGGCAAAAAAAAA'
p372
aF1.0
aa(lp373
S'Looking Back Again'
p374
aS'(((..(((((((.....((((((...)))))).))))..((((((..(((...)))))).(((((...((((....))))....)))))..)))..)))..(((((((.....(((((....)))))......)))((((((((((...)))))(((((...)))))((((((((..(..(..(..(..(..((((....))))..).)..))..).))(((....)))..))))))...))))))))).(((((.((((......(((((((........((((.....))))))))...))).))))((((......((((((((....))))))..(((((...)).(((((...)))))..)))))....)))))))))...)))'
p375
aS'GAGAAGCCAAUUCCAAGGAUAUCAAAGAUAUCAGCUAAAGACCUCAAGACAAAGUCGAGGGAUUCAAGGUUCAAAAGAGCAAAAGAAUCAAUCUAAGGCAACGGGGAGAAAAUGAUAUUAAUGUAUCUAAAAACUCGGCACGUUCCAAAGGAACUACACAAAGUGUAGUCAUUGGAAGUAGACCAUGAAUGAGGUGAAAACACUAAGAAUAGCAUCCGCGUCAAAAGACAAUAUGGCAAAGAAUUCCCGGGUAAGAAGCCGAACAAGAGAUAUAAAAAAAAAAUCAAAAAGAUUAUAUGUUAUGAGGAUAGAUUAAAAAGUGAUAUCAAAAGAUAUCAAGACGCAAUGAAGAUACUAUGUAUCAGGUAGAAAAUAGUACUAACAAACCC'
p376
aF0.87146529562982
aa(lp377
S'Multilooping 6'
p378
aS'..(((((((((((((....)))))(((((....))))))))((((((((....)))))(((((....)))))))))))))..'
p379
aS'AAGAUACCGCGAUACAAAAGUAUCAGAUCAAAAGAUCUGCGGACGAUUCAAAAGAAUCAGAUCAAAGGAUCUGUCGUAUCGA'
p380
aF1.0
aa(lp381
S'Cesspool'
p382
aS'((..(..((....))..(((.(..(.(((...)))..)..)..)))..(..(....)..).(..(....)..).....((....))..)..))..((..(..((....))..(((.(..(.(((...)))..)..)..)))..(..(....)..).(..(....)..).....((....))..)..))..((..(..((....))..(((.(..(.(((...)))..)..)..)))..(..(....)..).(..(....)..).....((....))..)..))..((..(..((....))..(((.(..(.(((...)))..)..)..)))..(..(....)..).(..(....)..).....((....))..)..))'
p383
aS'UUAAGAGCCGAAAGCAACGUCCAAGGGCCAAAGGCUACAAUAGAUAAAGAAAAAAAUAAUUUUUCAAAAGUAGUAAGUCCAAAAGGAACAGGGAAGUAUGAAGCAAAGACAAACGAUGAGCACAAAAGGUAACAAGAACAUAAGAAGAAAGGAACAGAACAAAAGAACGAAGAACAAAAGUGACUAGCAAGCAUGAAGGAAAACCAACAGAGAACAAAAAAAUUUAAGAGUAGUGGAAAAAGAAAACAAUAUGAUAAAGAAAGAAAGUCGAAAACGAAUUAGCAACCAAGAUAGUAAUUUAACUUAGAAGGGAGAAGCACAACGACAAGAGAAGAUGAAAACUACAGAAGAAAACAGCGAAGAACAAAAGUGAAGAGG'
p384
aF0.7857142857142857
aa(lp385
S'Hoglafractal'
p386
aS'(.(((..(((((....(((((......))))))))))((((...((((.....))))))))(((..(((....)))))).(((...((((...((((......))))))))(((..(((.....))))))((.((....)))).((((....(((..(((......))))))((.((.....))))(((....))).(((((.....((.((......))))(((.....)))((....)).((((((......(((......)))((.....))...(((((((...))))))).......))))))......))))).....))))....)))...)))..)...(.((.((((....((....))((....))((((((...)))))).)))))).)'
p387
aS'GAUGCCUUGUACAAAAGAUACAAAAAAGUAUCGUACAUCCUACUAUCCGAAAAGCUAAAGGACUACGGAAAAAGCCGCAAAGAAAAGCUGAAAUUUCAAAAAGGAAAUAUCCCUAAGGCAAAAAGCCGGCUGAACAAAAAACAAGGUGAAAAGAGCAGAAUAAAAUUUACUAGCAGCAAAAAGCGCGUCGACAGAUAGAUAUAUAAUCCAGCAAAAAAGUUGCACAAAAAGUGGUAAAAGCAGAUCCGAAAAAAUCCAAAAAAGGGGCGAAAAGCAAUCUACCGUAAAGUGGUAGUAAAAAACGGAUCAAAAAGGUAUCAAAACCAUCAAAGUUCCCAGCAAACAAACGUCAUGUUAAAAGGAAAGCCGCAAAGGCCUAGGCGAAGUCUACAGACAGAAG'
p388
aF0.95
aa(lp389
S'Bullseye'
p390
aS'...(((((((...))))..((((...))))..((((...)))))))........(((((((...))))..((((...))))..((((...)))))))........(((((((...))))..((((...))))..((((...)))))))........(((((((...))))..((((...))))..((((...)))))))...'
p391
aS'AAAUAGCAUCAAAGUACAACAUCUAUGUACCAGAUGGAAUAUAUUGGAAAAAAGGGCCGCUAAAGGCGCAGCUUUAUAAGGCAAACCGAUGGUCGCCAAAAAAAGUAAGGCUAAAAGCCAAGAGCAGGGUACAAGUGUGGACCGCCUAAAAAAAAACUCCUUCAAGGAGGAGGAUUGAAUAUCAAGAGAAAAUCGGGAGAAA'
p392
aF0.8960396039603961
aa(lp393
S'Shooting Star'
p394
aS'(((((((((((((((((...(.(..((.(((.(((.((....).))).)))).).)..))..))))))).(((((..(.(..((.(((.(((((.(((.((((.((....).)))).))))).))).)))).).)..))..)((....))..))))(((((((((...))))).(((((...)))))(.(....).).)))).)))).((((.((((...(((((((...))))))).(((((...)))))))))(((((((...))))))).(((((...)))))))))((((..((....))(..((..(..(.(.(((.((((.((....).)))).)))).)..)..).))..))))).)))))).'
p395
aS'GAGGGAGUGAAGAUAACUAUCAGUAGCGGAGUGGCACCAAAGGACGUGCUUCAGACAUCUCUGUUAUCUUCGAUUAAGAGUCGUAGACCCAAACAGAGAAAUCAGUUAAUAACGAUCCUUCAAUUUUCGUCGAACAUCGGGGGCAAAAGCAAAUAGGGAAGAAUCGAAGAUGUAAGUACUAUCUAUUGAAUAAUUCCAUUCAAGAGCAGUGCAGAAGAAUGUUAAACUAUGUUUAACGCUAUGAAGUAUAGCUUCAUUUUAUGAAGUAGAAUAGUUACAAAGUAACGCACGCUAAAGCGAAAGCGGAACAAAUGGGAUGUCAGUUCAGGAAAAGACGAAUCGACUUGACAUUGGUAACUAGCAUCCUUCA'
p396
aF0.8621621621621621
aa(lp397
S'Teslagon'
p398
aS'......((.......((.((.......((.((...............)).........((...............)).)).......)).((.......((...............)).......)).((.......((.((...............)).........((...............)).)).......)).((.......((...............)).......)).((.......((.((...............)).........((...............)).)).......)).((.......((...........((...............)).)).......)).)).......))......'
p399
aS'AAAAAAAGUAAAAAAGAAUCAAAAAAACUAGCAAAAAAAAAAAAAAAGCGCCAAACUGGCAAAAAAAAAAAAAAAGUAGGAAAAAAGCAAGGAAAAAAAGAAAAAAAAAAAAAAAAUCAAAAAAACUGCCAAAAAAACGAGCAAAAAAAAAAAAAAGAGUUAAAAUUAGUAAAAAAAAAAAAAAAGUGGGAAAAAAAGGGGCAAAAACAGCUAAAAAAAAAAAAAUGUGAAAAAAUCACUGAAAAAAGCACCAAAAAAAAAAAAAAAGAGAAAAAUAUGUAAAAAAAAAAAAAAAACACCAAAAAAAUGAUCAAAAAAAGCAAAAGAGAAAGACAAAAAAAAAAAAAAGAUAUGAAAAAAAGAGGCAAAAAAUCUAAAAAA'
p400
aF0.9212598425196851
aa.